ARM GAS  C:\Users\Test\AppData\Local\Temp\cczm73MB.s 			page 1


   1              		.cpu cortex-m3
   2              		.eabi_attribute 20, 1
   3              		.eabi_attribute 21, 1
   4              		.eabi_attribute 23, 3
   5              		.eabi_attribute 24, 1
   6              		.eabi_attribute 25, 1
   7              		.eabi_attribute 26, 1
   8              		.eabi_attribute 30, 1
   9              		.eabi_attribute 34, 1
  10              		.eabi_attribute 18, 4
  11              		.file	"list.c"
  12              		.text
  13              	.Ltext0:
  14              		.cfi_sections	.debug_frame
  15              		.section	.text.vListInitialise,"ax",%progbits
  16              		.align	1
  17              		.global	vListInitialise
  18              		.arch armv7-m
  19              		.syntax unified
  20              		.thumb
  21              		.thumb_func
  22              		.fpu softvfp
  24              	vListInitialise:
  25              	.LVL0:
  26              	.LFB4:
  27              		.file 1 "../Middlewares/Third_Party/FreeRTOS/Source/list.c"
   1:../Middlewares/Third_Party/FreeRTOS/Source/list.c **** 
  28              		.loc 1 38 1 view -0
  29              		.cfi_startproc
  30              		@ args = 0, pretend = 0, frame = 0
  31              		@ frame_needed = 0, uses_anonymous_args = 0
  32              		@ link register save eliminated.
  33              		.loc 1 42 2 view .LVU1
  34              		.loc 1 42 37 is_stmt 0 view .LVU2
  35 0000 00F10803 		add	r3, r0, #8
  36              		.loc 1 42 18 view .LVU3
  37 0004 4360     		str	r3, [r0, #4]
  38              		.loc 1 46 2 is_stmt 1 view .LVU4
  39              		.loc 1 46 30 is_stmt 0 view .LVU5
  40 0006 4FF0FF32 		mov	r2, #-1
  41 000a 8260     		str	r2, [r0, #8]
  42              		.loc 1 50 2 is_stmt 1 view .LVU6
  43              		.loc 1 50 26 is_stmt 0 view .LVU7
  44 000c C360     		str	r3, [r0, #12]
  45              		.loc 1 51 2 is_stmt 1 view .LVU8
  46              		.loc 1 51 30 is_stmt 0 view .LVU9
  47 000e 0361     		str	r3, [r0, #16]
  48              		.loc 1 53 2 is_stmt 1 view .LVU10
  49              		.loc 1 53 26 is_stmt 0 view .LVU11
  50 0010 0023     		movs	r3, #0
  51 0012 0360     		str	r3, [r0]
  52              		.loc 1 57 48 is_stmt 1 view .LVU12
  53              		.loc 1 58 48 view .LVU13
  54              		.loc 1 59 1 is_stmt 0 view .LVU14
  55 0014 7047     		bx	lr
  56              		.cfi_endproc
  57              	.LFE4:
ARM GAS  C:\Users\Test\AppData\Local\Temp\cczm73MB.s 			page 2


  59              		.section	.text.vListInitialiseItem,"ax",%progbits
  60              		.align	1
  61              		.global	vListInitialiseItem
  62              		.syntax unified
  63              		.thumb
  64              		.thumb_func
  65              		.fpu softvfp
  67              	vListInitialiseItem:
  68              	.LVL1:
  69              	.LFB5:
  70              		.loc 1 63 1 is_stmt 1 view -0
  71              		.cfi_startproc
  72              		@ args = 0, pretend = 0, frame = 0
  73              		@ frame_needed = 0, uses_anonymous_args = 0
  74              		@ link register save eliminated.
  75              		.loc 1 65 2 view .LVU16
  76              		.loc 1 65 22 is_stmt 0 view .LVU17
  77 0000 0023     		movs	r3, #0
  78 0002 0361     		str	r3, [r0, #16]
  79              		.loc 1 69 57 is_stmt 1 view .LVU18
  80              		.loc 1 70 58 view .LVU19
  81              		.loc 1 71 1 is_stmt 0 view .LVU20
  82 0004 7047     		bx	lr
  83              		.cfi_endproc
  84              	.LFE5:
  86              		.section	.text.vListInsertEnd,"ax",%progbits
  87              		.align	1
  88              		.global	vListInsertEnd
  89              		.syntax unified
  90              		.thumb
  91              		.thumb_func
  92              		.fpu softvfp
  94              	vListInsertEnd:
  95              	.LVL2:
  96              	.LFB6:
  97              		.loc 1 75 1 is_stmt 1 view -0
  98              		.cfi_startproc
  99              		@ args = 0, pretend = 0, frame = 0
 100              		@ frame_needed = 0, uses_anonymous_args = 0
 101              		@ link register save eliminated.
 102              		.loc 1 76 1 view .LVU22
 103              		.loc 1 76 20 is_stmt 0 view .LVU23
 104 0000 4368     		ldr	r3, [r0, #4]
 105              	.LVL3:
 106              		.loc 1 81 35 is_stmt 1 view .LVU24
 107              		.loc 1 82 47 view .LVU25
 108              		.loc 1 87 2 view .LVU26
 109              		.loc 1 87 24 is_stmt 0 view .LVU27
 110 0002 4B60     		str	r3, [r1, #4]
 111              		.loc 1 88 2 is_stmt 1 view .LVU28
 112              		.loc 1 88 37 is_stmt 0 view .LVU29
 113 0004 9A68     		ldr	r2, [r3, #8]
 114              		.loc 1 88 28 view .LVU30
 115 0006 8A60     		str	r2, [r1, #8]
 116              		.loc 1 91 25 is_stmt 1 view .LVU31
 117              		.loc 1 93 2 view .LVU32
 118              		.loc 1 93 30 is_stmt 0 view .LVU33
ARM GAS  C:\Users\Test\AppData\Local\Temp\cczm73MB.s 			page 3


 119 0008 5160     		str	r1, [r2, #4]
 120              		.loc 1 94 2 is_stmt 1 view .LVU34
 121              		.loc 1 94 22 is_stmt 0 view .LVU35
 122 000a 9960     		str	r1, [r3, #8]
 123              		.loc 1 97 2 is_stmt 1 view .LVU36
 124              		.loc 1 97 29 is_stmt 0 view .LVU37
 125 000c 0861     		str	r0, [r1, #16]
 126              		.loc 1 99 2 is_stmt 1 view .LVU38
 127              		.loc 1 99 10 is_stmt 0 view .LVU39
 128 000e 0368     		ldr	r3, [r0]
 129              	.LVL4:
 130              		.loc 1 99 29 view .LVU40
 131 0010 0133     		adds	r3, r3, #1
 132 0012 0360     		str	r3, [r0]
 133              		.loc 1 100 1 view .LVU41
 134 0014 7047     		bx	lr
 135              		.cfi_endproc
 136              	.LFE6:
 138              		.section	.text.vListInsert,"ax",%progbits
 139              		.align	1
 140              		.global	vListInsert
 141              		.syntax unified
 142              		.thumb
 143              		.thumb_func
 144              		.fpu softvfp
 146              	vListInsert:
 147              	.LVL5:
 148              	.LFB7:
 149              		.loc 1 104 1 is_stmt 1 view -0
 150              		.cfi_startproc
 151              		@ args = 0, pretend = 0, frame = 0
 152              		@ frame_needed = 0, uses_anonymous_args = 0
 153              		@ link register save eliminated.
 154              		.loc 1 104 1 is_stmt 0 view .LVU43
 155 0000 30B4     		push	{r4, r5}
 156              	.LCFI0:
 157              		.cfi_def_cfa_offset 8
 158              		.cfi_offset 4, -8
 159              		.cfi_offset 5, -4
 160              		.loc 1 105 1 is_stmt 1 view .LVU44
 161              		.loc 1 106 1 view .LVU45
 162              		.loc 1 106 18 is_stmt 0 view .LVU46
 163 0002 0D68     		ldr	r5, [r1]
 164              	.LVL6:
 165              		.loc 1 111 35 is_stmt 1 view .LVU47
 166              		.loc 1 112 47 view .LVU48
 167              		.loc 1 122 2 view .LVU49
 168              		.loc 1 122 4 is_stmt 0 view .LVU50
 169 0004 B5F1FF3F 		cmp	r5, #-1
 170 0008 11D0     		beq	.L9
 171              		.loc 1 150 3 is_stmt 1 view .LVU51
 172              		.loc 1 150 19 is_stmt 0 view .LVU52
 173 000a 00F10803 		add	r3, r0, #8
 174              	.LVL7:
 175              	.L7:
 176              		.loc 1 150 61 is_stmt 1 discriminator 1 view .LVU53
 177 000e 1C46     		mov	r4, r3
ARM GAS  C:\Users\Test\AppData\Local\Temp\cczm73MB.s 			page 4


 178              		.loc 1 150 71 is_stmt 0 discriminator 1 view .LVU54
 179 0010 5B68     		ldr	r3, [r3, #4]
 180              	.LVL8:
 181              		.loc 1 150 79 discriminator 1 view .LVU55
 182 0012 1A68     		ldr	r2, [r3]
 183              		.loc 1 150 3 discriminator 1 view .LVU56
 184 0014 AA42     		cmp	r2, r5
 185 0016 FAD9     		bls	.L7
 186              	.L6:
 187              		.loc 1 157 2 is_stmt 1 view .LVU57
 188              		.loc 1 157 36 is_stmt 0 view .LVU58
 189 0018 6368     		ldr	r3, [r4, #4]
 190              		.loc 1 157 24 view .LVU59
 191 001a 4B60     		str	r3, [r1, #4]
 192              		.loc 1 158 2 is_stmt 1 view .LVU60
 193              		.loc 1 158 36 is_stmt 0 view .LVU61
 194 001c 9960     		str	r1, [r3, #8]
 195              		.loc 1 159 2 is_stmt 1 view .LVU62
 196              		.loc 1 159 28 is_stmt 0 view .LVU63
 197 001e 8C60     		str	r4, [r1, #8]
 198              		.loc 1 160 2 is_stmt 1 view .LVU64
 199              		.loc 1 160 21 is_stmt 0 view .LVU65
 200 0020 6160     		str	r1, [r4, #4]
 201              		.loc 1 164 2 is_stmt 1 view .LVU66
 202              		.loc 1 164 29 is_stmt 0 view .LVU67
 203 0022 0861     		str	r0, [r1, #16]
 204              		.loc 1 166 2 is_stmt 1 view .LVU68
 205              		.loc 1 166 10 is_stmt 0 view .LVU69
 206 0024 0368     		ldr	r3, [r0]
 207              		.loc 1 166 29 view .LVU70
 208 0026 0133     		adds	r3, r3, #1
 209 0028 0360     		str	r3, [r0]
 210              		.loc 1 167 1 view .LVU71
 211 002a 30BC     		pop	{r4, r5}
 212              	.LCFI1:
 213              		.cfi_remember_state
 214              		.cfi_restore 5
 215              		.cfi_restore 4
 216              		.cfi_def_cfa_offset 0
 217              	.LVL9:
 218              		.loc 1 167 1 view .LVU72
 219 002c 7047     		bx	lr
 220              	.LVL10:
 221              	.L9:
 222              	.LCFI2:
 223              		.cfi_restore_state
 224              		.loc 1 124 3 is_stmt 1 view .LVU73
 225              		.loc 1 124 14 is_stmt 0 view .LVU74
 226 002e 0469     		ldr	r4, [r0, #16]
 227              	.LVL11:
 228              		.loc 1 124 14 view .LVU75
 229 0030 F2E7     		b	.L6
 230              		.cfi_endproc
 231              	.LFE7:
 233              		.section	.text.uxListRemove,"ax",%progbits
 234              		.align	1
 235              		.global	uxListRemove
ARM GAS  C:\Users\Test\AppData\Local\Temp\cczm73MB.s 			page 5


 236              		.syntax unified
 237              		.thumb
 238              		.thumb_func
 239              		.fpu softvfp
 241              	uxListRemove:
 242              	.LVL12:
 243              	.LFB8:
 244              		.loc 1 171 1 is_stmt 1 view -0
 245              		.cfi_startproc
 246              		@ args = 0, pretend = 0, frame = 0
 247              		@ frame_needed = 0, uses_anonymous_args = 0
 248              		@ link register save eliminated.
 249              		.loc 1 174 1 view .LVU77
 250              		.loc 1 174 16 is_stmt 0 view .LVU78
 251 0000 0369     		ldr	r3, [r0, #16]
 252              	.LVL13:
 253              		.loc 1 176 2 is_stmt 1 view .LVU79
 254              		.loc 1 176 16 is_stmt 0 view .LVU80
 255 0002 4168     		ldr	r1, [r0, #4]
 256              		.loc 1 176 53 view .LVU81
 257 0004 8268     		ldr	r2, [r0, #8]
 258              		.loc 1 176 37 view .LVU82
 259 0006 8A60     		str	r2, [r1, #8]
 260              		.loc 1 177 2 is_stmt 1 view .LVU83
 261              		.loc 1 177 53 is_stmt 0 view .LVU84
 262 0008 4168     		ldr	r1, [r0, #4]
 263              		.loc 1 177 37 view .LVU85
 264 000a 5160     		str	r1, [r2, #4]
 265              		.loc 1 180 25 is_stmt 1 view .LVU86
 266              		.loc 1 183 2 view .LVU87
 267              		.loc 1 183 12 is_stmt 0 view .LVU88
 268 000c 5A68     		ldr	r2, [r3, #4]
 269              		.loc 1 183 4 view .LVU89
 270 000e 8242     		cmp	r2, r0
 271 0010 06D0     		beq	.L12
 272              	.L11:
 273              		.loc 1 189 27 is_stmt 1 view .LVU90
 274              		.loc 1 192 2 view .LVU91
 275              		.loc 1 192 30 is_stmt 0 view .LVU92
 276 0012 0022     		movs	r2, #0
 277 0014 0261     		str	r2, [r0, #16]
 278              		.loc 1 193 2 is_stmt 1 view .LVU93
 279              		.loc 1 193 10 is_stmt 0 view .LVU94
 280 0016 1A68     		ldr	r2, [r3]
 281              		.loc 1 193 29 view .LVU95
 282 0018 013A     		subs	r2, r2, #1
 283 001a 1A60     		str	r2, [r3]
 284              		.loc 1 195 2 is_stmt 1 view .LVU96
 285              		.loc 1 195 15 is_stmt 0 view .LVU97
 286 001c 1868     		ldr	r0, [r3]
 287              	.LVL14:
 288              		.loc 1 196 1 view .LVU98
 289 001e 7047     		bx	lr
 290              	.LVL15:
 291              	.L12:
 292              		.loc 1 185 3 is_stmt 1 view .LVU99
 293              		.loc 1 185 35 is_stmt 0 view .LVU100
ARM GAS  C:\Users\Test\AppData\Local\Temp\cczm73MB.s 			page 6


 294 0020 8268     		ldr	r2, [r0, #8]
 295              		.loc 1 185 19 view .LVU101
 296 0022 5A60     		str	r2, [r3, #4]
 297 0024 F5E7     		b	.L11
 298              		.cfi_endproc
 299              	.LFE8:
 301              		.text
 302              	.Letext0:
 303              		.file 2 "../c:\\users\\test\\desktop\\gnu mcu\\arm-none-eabi-gcc-10.2.1-1.1\\arm-none-eabi\\includ
 304              		.file 3 "../c:\\users\\test\\desktop\\gnu mcu\\arm-none-eabi-gcc-10.2.1-1.1\\arm-none-eabi\\includ
 305              		.file 4 "../Middlewares/Third_Party/FreeRTOS/Source/portable/GCC/ARM_CM3/portmacro.h"
 306              		.file 5 "../Middlewares/Third_Party/FreeRTOS/Source/include/list.h"
ARM GAS  C:\Users\Test\AppData\Local\Temp\cczm73MB.s 			page 7

