ARM GAS  C:\Users\Test\AppData\Local\Temp\ccxnBkka.s 			page 1


   1              		.cpu cortex-m3
   2              		.eabi_attribute 20, 1
   3              		.eabi_attribute 21, 1
   4              		.eabi_attribute 23, 3
   5              		.eabi_attribute 24, 1
   6              		.eabi_attribute 25, 1
   7              		.eabi_attribute 26, 1
   8              		.eabi_attribute 30, 1
   9              		.eabi_attribute 34, 1
  10              		.eabi_attribute 18, 4
  11              		.file	"stream_buffer.c"
  12              		.text
  13              	.Ltext0:
  14              		.cfi_sections	.debug_frame
  15              		.section	.text.prvBytesInBuffer,"ax",%progbits
  16              		.align	1
  17              		.arch armv7-m
  18              		.syntax unified
  19              		.thumb
  20              		.thumb_func
  21              		.fpu softvfp
  23              	prvBytesInBuffer:
  24              	.LVL0:
  25              	.LFB23:
  26              		.file 1 "../Middlewares/Third_Party/FreeRTOS/Source/stream_buffer.c"
   1:../Middlewares/Third_Party/FreeRTOS/Source/stream_buffer.c **** 
  27              		.loc 1 1122 1 view -0
  28              		.cfi_startproc
  29              		@ args = 0, pretend = 0, frame = 0
  30              		@ frame_needed = 0, uses_anonymous_args = 0
  31              		@ link register save eliminated.
  32              		.loc 1 1124 1 view .LVU1
  33              		.loc 1 1126 2 view .LVU2
  34              		.loc 1 1126 25 is_stmt 0 view .LVU3
  35 0000 8268     		ldr	r2, [r0, #8]
  36              		.loc 1 1126 51 view .LVU4
  37 0002 4368     		ldr	r3, [r0, #4]
  38              		.loc 1 1126 9 view .LVU5
  39 0004 1344     		add	r3, r3, r2
  40              	.LVL1:
  41              		.loc 1 1127 2 is_stmt 1 view .LVU6
  42              		.loc 1 1127 26 is_stmt 0 view .LVU7
  43 0006 0068     		ldr	r0, [r0]
  44              	.LVL2:
  45              		.loc 1 1127 9 view .LVU8
  46 0008 181A     		subs	r0, r3, r0
  47              	.LVL3:
  48              		.loc 1 1128 2 is_stmt 1 view .LVU9
  49              		.loc 1 1128 5 is_stmt 0 view .LVU10
  50 000a 8242     		cmp	r2, r0
  51 000c 00D8     		bhi	.L1
  52              		.loc 1 1130 3 is_stmt 1 view .LVU11
  53              		.loc 1 1130 10 is_stmt 0 view .LVU12
  54 000e 801A     		subs	r0, r0, r2
  55              	.LVL4:
  56              		.loc 1 1134 27 is_stmt 1 view .LVU13
  57              		.loc 1 1137 2 view .LVU14
ARM GAS  C:\Users\Test\AppData\Local\Temp\ccxnBkka.s 			page 2


  58              	.L1:
  59              		.loc 1 1138 1 is_stmt 0 view .LVU15
  60 0010 7047     		bx	lr
  61              		.cfi_endproc
  62              	.LFE23:
  64              		.section	.text.prvInitialiseNewStreamBuffer,"ax",%progbits
  65              		.align	1
  66              		.syntax unified
  67              		.thumb
  68              		.thumb_func
  69              		.fpu softvfp
  71              	prvInitialiseNewStreamBuffer:
  72              	.LVL5:
  73              	.LFB24:
  74              		.loc 1 1146 1 is_stmt 1 view -0
  75              		.cfi_startproc
  76              		@ args = 4, pretend = 0, frame = 0
  77              		@ frame_needed = 0, uses_anonymous_args = 0
  78              		.loc 1 1146 1 is_stmt 0 view .LVU17
  79 0000 F8B5     		push	{r3, r4, r5, r6, r7, lr}
  80              	.LCFI0:
  81              		.cfi_def_cfa_offset 24
  82              		.cfi_offset 3, -24
  83              		.cfi_offset 4, -20
  84              		.cfi_offset 5, -16
  85              		.cfi_offset 6, -12
  86              		.cfi_offset 7, -8
  87              		.cfi_offset 14, -4
  88 0002 0546     		mov	r5, r0
  89 0004 0C46     		mov	r4, r1
  90 0006 1746     		mov	r7, r2
  91 0008 1E46     		mov	r6, r3
  92              	.LBB88:
  93              		.loc 1 1155 3 is_stmt 1 view .LVU18
  94              	.LVL6:
  95              		.loc 1 1156 3 view .LVU19
  96 000a 5521     		movs	r1, #85
  97              	.LVL7:
  98              		.loc 1 1156 3 is_stmt 0 view .LVU20
  99 000c 2046     		mov	r0, r4
 100              	.LVL8:
 101              		.loc 1 1156 3 view .LVU21
 102 000e 0D4B     		ldr	r3, .L8
 103              	.LVL9:
 104              		.loc 1 1156 3 view .LVU22
 105 0010 9847     		blx	r3
 106              	.LVL10:
 107              		.loc 1 1156 3 view .LVU23
 108 0012 8442     		cmp	r4, r0
 109 0014 08D0     		beq	.L4
 110              		.loc 1 1156 3 is_stmt 1 view .LVU24
 111              	.LBB89:
 112              	.LBI89:
 113              		.file 2 "../Middlewares/Third_Party/FreeRTOS/Source/portable/GCC/ARM_CM3/portmacro.h"
   1:../Middlewares/Third_Party/FreeRTOS/Source/portable/GCC/ARM_CM3/portmacro.h **** 
 114              		.loc 2 191 30 view .LVU25
 115              	.LBB90:
ARM GAS  C:\Users\Test\AppData\Local\Temp\ccxnBkka.s 			page 3


 116              		.loc 2 193 1 view .LVU26
 117              		.loc 2 195 2 view .LVU27
 118              		.syntax unified
 119              	@ 195 "Middlewares/Third_Party/FreeRTOS/Source/portable/GCC/ARM_CM3/portmacro.h" 1
 120 0016 4FF05003 			mov r3, #80												
 121 001a 83F31188 		msr basepri, r3											
 122 001e BFF36F8F 		isb														
 123 0022 BFF34F8F 		dsb														
 124              	
 125              	@ 0 "" 2
 126              	.LVL11:
 127              		.thumb
 128              		.syntax unified
 129              	.L5:
 130              		.loc 2 195 2 is_stmt 0 view .LVU28
 131              	.LBE90:
 132              	.LBE89:
 133              		.loc 1 1156 3 is_stmt 1 discriminator 1 view .LVU29
 134              		.loc 1 1156 3 discriminator 1 view .LVU30
 135              		.loc 1 1156 3 discriminator 1 view .LVU31
 136 0026 FEE7     		b	.L5
 137              	.L4:
 138              		.loc 1 1156 90 discriminator 2 view .LVU32
 139              	.LBE88:
 140              		.loc 1 1160 2 discriminator 2 view .LVU33
 141 0028 2422     		movs	r2, #36
 142 002a 0021     		movs	r1, #0
 143 002c 2846     		mov	r0, r5
 144 002e 054B     		ldr	r3, .L8
 145 0030 9847     		blx	r3
 146              	.LVL12:
 147              		.loc 1 1161 2 discriminator 2 view .LVU34
 148              		.loc 1 1161 28 is_stmt 0 discriminator 2 view .LVU35
 149 0032 AC61     		str	r4, [r5, #24]
 150              		.loc 1 1162 2 is_stmt 1 discriminator 2 view .LVU36
 151              		.loc 1 1162 26 is_stmt 0 discriminator 2 view .LVU37
 152 0034 AF60     		str	r7, [r5, #8]
 153              		.loc 1 1163 2 is_stmt 1 discriminator 2 view .LVU38
 154              		.loc 1 1163 37 is_stmt 0 discriminator 2 view .LVU39
 155 0036 EE60     		str	r6, [r5, #12]
 156              		.loc 1 1165 2 is_stmt 1 discriminator 2 view .LVU40
 157              		.loc 1 1165 4 is_stmt 0 discriminator 2 view .LVU41
 158 0038 069B     		ldr	r3, [sp, #24]
 159 003a 0BB1     		cbz	r3, .L3
 160              		.loc 1 1167 3 is_stmt 1 view .LVU42
 161              		.loc 1 1167 27 is_stmt 0 view .LVU43
 162 003c 0123     		movs	r3, #1
 163 003e 2B77     		strb	r3, [r5, #28]
 164              	.L3:
 165              		.loc 1 1169 1 view .LVU44
 166 0040 F8BD     		pop	{r3, r4, r5, r6, r7, pc}
 167              	.LVL13:
 168              	.L9:
 169              		.loc 1 1169 1 view .LVU45
 170 0042 00BF     		.align	2
 171              	.L8:
 172 0044 00000000 		.word	memset
ARM GAS  C:\Users\Test\AppData\Local\Temp\ccxnBkka.s 			page 4


 173              		.cfi_endproc
 174              	.LFE24:
 176              		.section	.text.prvWriteBytesToBuffer,"ax",%progbits
 177              		.align	1
 178              		.syntax unified
 179              		.thumb
 180              		.thumb_func
 181              		.fpu softvfp
 183              	prvWriteBytesToBuffer:
 184              	.LVL14:
 185              	.LFB21:
 186              		.loc 1 1021 1 is_stmt 1 view -0
 187              		.cfi_startproc
 188              		@ args = 0, pretend = 0, frame = 0
 189              		@ frame_needed = 0, uses_anonymous_args = 0
 190              		.loc 1 1022 1 view .LVU47
 191              		.loc 1 1024 2 view .LVU48
 192 0000 42B9     		cbnz	r2, .L11
 193              		.loc 1 1024 2 view .LVU49
 194              	.LBB91:
 195              	.LBI91:
 196              		.loc 2 191 30 view .LVU50
 197              	.LBB92:
 198              		.loc 2 193 1 view .LVU51
 199              		.loc 2 195 2 view .LVU52
 200              		.syntax unified
 201              	@ 195 "Middlewares/Third_Party/FreeRTOS/Source/portable/GCC/ARM_CM3/portmacro.h" 1
 202 0002 4FF05003 			mov r3, #80												
 203 0006 83F31188 		msr basepri, r3											
 204 000a BFF36F8F 		isb														
 205 000e BFF34F8F 		dsb														
 206              	
 207              	@ 0 "" 2
 208              	.LVL15:
 209              		.thumb
 210              		.syntax unified
 211              	.L12:
 212              		.loc 2 195 2 is_stmt 0 view .LVU53
 213              	.LBE92:
 214              	.LBE91:
 215              		.loc 1 1024 2 is_stmt 1 discriminator 1 view .LVU54
 216              		.loc 1 1024 2 discriminator 1 view .LVU55
 217              		.loc 1 1024 2 discriminator 1 view .LVU56
 218 0012 FEE7     		b	.L12
 219              	.L11:
 220              		.loc 1 1021 1 is_stmt 0 discriminator 2 view .LVU57
 221 0014 2DE9F041 		push	{r4, r5, r6, r7, r8, lr}
 222              	.LCFI1:
 223              		.cfi_def_cfa_offset 24
 224              		.cfi_offset 4, -24
 225              		.cfi_offset 5, -20
 226              		.cfi_offset 6, -16
 227              		.cfi_offset 7, -12
 228              		.cfi_offset 8, -8
 229              		.cfi_offset 14, -4
 230 0018 0446     		mov	r4, r0
 231 001a 0E46     		mov	r6, r1
ARM GAS  C:\Users\Test\AppData\Local\Temp\ccxnBkka.s 			page 5


 232 001c 1746     		mov	r7, r2
 233              		.loc 1 1024 39 is_stmt 1 discriminator 2 view .LVU58
 234              		.loc 1 1026 2 discriminator 2 view .LVU59
 235              		.loc 1 1026 12 is_stmt 0 discriminator 2 view .LVU60
 236 001e D0F80480 		ldr	r8, [r0, #4]
 237              	.LVL16:
 238              		.loc 1 1031 2 is_stmt 1 discriminator 2 view .LVU61
 239              		.loc 1 1031 17 is_stmt 0 discriminator 2 view .LVU62
 240 0022 8368     		ldr	r3, [r0, #8]
 241 0024 A3EB0805 		sub	r5, r3, r8
 242              		.loc 1 1031 15 discriminator 2 view .LVU63
 243 0028 9542     		cmp	r5, r2
 244 002a 28BF     		it	cs
 245 002c 1546     		movcs	r5, r2
 246              	.LVL17:
 247              		.loc 1 1034 2 is_stmt 1 discriminator 2 view .LVU64
 248 002e 08EB0502 		add	r2, r8, r5
 249              	.LVL18:
 250              		.loc 1 1034 2 is_stmt 0 discriminator 2 view .LVU65
 251 0032 9342     		cmp	r3, r2
 252 0034 08D2     		bcs	.L13
 253              		.loc 1 1034 2 is_stmt 1 view .LVU66
 254              	.LBB93:
 255              	.LBI93:
 256              		.loc 2 191 30 view .LVU67
 257              	.LBB94:
 258              		.loc 2 193 1 view .LVU68
 259              		.loc 2 195 2 view .LVU69
 260              		.syntax unified
 261              	@ 195 "Middlewares/Third_Party/FreeRTOS/Source/portable/GCC/ARM_CM3/portmacro.h" 1
 262 0036 4FF05003 			mov r3, #80												
 263 003a 83F31188 		msr basepri, r3											
 264 003e BFF36F8F 		isb														
 265 0042 BFF34F8F 		dsb														
 266              	
 267              	@ 0 "" 2
 268              	.LVL19:
 269              		.thumb
 270              		.syntax unified
 271              	.L14:
 272              		.loc 2 195 2 is_stmt 0 view .LVU70
 273              	.LBE94:
 274              	.LBE93:
 275              		.loc 1 1034 2 is_stmt 1 discriminator 2 view .LVU71
 276              		.loc 1 1034 2 discriminator 2 view .LVU72
 277              		.loc 1 1034 2 discriminator 2 view .LVU73
 278 0046 FEE7     		b	.L14
 279              	.L13:
 280              		.loc 1 1034 73 discriminator 2 view .LVU74
 281              		.loc 1 1035 2 discriminator 2 view .LVU75
 282              		.loc 1 1035 39 is_stmt 0 discriminator 2 view .LVU76
 283 0048 8069     		ldr	r0, [r0, #24]
 284              	.LVL20:
 285              		.loc 1 1035 2 discriminator 2 view .LVU77
 286 004a 2A46     		mov	r2, r5
 287 004c 4044     		add	r0, r0, r8
 288 004e 0F4B     		ldr	r3, .L21
ARM GAS  C:\Users\Test\AppData\Local\Temp\ccxnBkka.s 			page 6


 289 0050 9847     		blx	r3
 290              	.LVL21:
 291              		.loc 1 1039 2 is_stmt 1 discriminator 2 view .LVU78
 292              		.loc 1 1039 4 is_stmt 0 discriminator 2 view .LVU79
 293 0052 AF42     		cmp	r7, r5
 294 0054 10D9     		bls	.L15
 295              		.loc 1 1042 3 is_stmt 1 view .LVU80
 296 0056 7A1B     		subs	r2, r7, r5
 297 0058 A368     		ldr	r3, [r4, #8]
 298 005a 9A42     		cmp	r2, r3
 299 005c 08D9     		bls	.L16
 300              		.loc 1 1042 3 view .LVU81
 301              	.LBB95:
 302              	.LBI95:
 303              		.loc 2 191 30 view .LVU82
 304              	.LBB96:
 305              		.loc 2 193 1 view .LVU83
 306              		.loc 2 195 2 view .LVU84
 307              		.syntax unified
 308              	@ 195 "Middlewares/Third_Party/FreeRTOS/Source/portable/GCC/ARM_CM3/portmacro.h" 1
 309 005e 4FF05003 			mov r3, #80												
 310 0062 83F31188 		msr basepri, r3											
 311 0066 BFF36F8F 		isb														
 312 006a BFF34F8F 		dsb														
 313              	
 314              	@ 0 "" 2
 315              	.LVL22:
 316              		.thumb
 317              		.syntax unified
 318              	.L17:
 319              		.loc 2 195 2 is_stmt 0 view .LVU85
 320              	.LBE96:
 321              	.LBE95:
 322              		.loc 1 1042 3 is_stmt 1 discriminator 3 view .LVU86
 323              		.loc 1 1042 3 discriminator 3 view .LVU87
 324              		.loc 1 1042 3 discriminator 3 view .LVU88
 325 006e FEE7     		b	.L17
 326              	.L16:
 327              		.loc 1 1042 71 discriminator 2 view .LVU89
 328              		.loc 1 1043 3 discriminator 2 view .LVU90
 329 0070 7119     		adds	r1, r6, r5
 330 0072 A069     		ldr	r0, [r4, #24]
 331 0074 054B     		ldr	r3, .L21
 332 0076 9847     		blx	r3
 333              	.LVL23:
 334              	.L15:
 335              		.loc 1 1047 27 view .LVU91
 336              		.loc 1 1050 2 view .LVU92
 337              		.loc 1 1050 12 is_stmt 0 view .LVU93
 338 0078 07EB0803 		add	r3, r7, r8
 339              	.LVL24:
 340              		.loc 1 1051 2 is_stmt 1 view .LVU94
 341              		.loc 1 1051 33 is_stmt 0 view .LVU95
 342 007c A268     		ldr	r2, [r4, #8]
 343              		.loc 1 1051 4 view .LVU96
 344 007e 9A42     		cmp	r2, r3
 345 0080 00D8     		bhi	.L18
ARM GAS  C:\Users\Test\AppData\Local\Temp\ccxnBkka.s 			page 7


 346              		.loc 1 1053 3 is_stmt 1 view .LVU97
 347              		.loc 1 1053 13 is_stmt 0 view .LVU98
 348 0082 9B1A     		subs	r3, r3, r2
 349              	.LVL25:
 350              	.L18:
 351              		.loc 1 1057 27 is_stmt 1 view .LVU99
 352              		.loc 1 1060 2 view .LVU100
 353              		.loc 1 1060 24 is_stmt 0 view .LVU101
 354 0084 6360     		str	r3, [r4, #4]
 355              		.loc 1 1062 2 is_stmt 1 view .LVU102
 356              		.loc 1 1063 1 is_stmt 0 view .LVU103
 357 0086 3846     		mov	r0, r7
 358 0088 BDE8F081 		pop	{r4, r5, r6, r7, r8, pc}
 359              	.LVL26:
 360              	.L22:
 361              		.loc 1 1063 1 view .LVU104
 362              		.align	2
 363              	.L21:
 364 008c 00000000 		.word	memcpy
 365              		.cfi_endproc
 366              	.LFE21:
 368              		.section	.text.prvWriteMessageToBuffer,"ax",%progbits
 369              		.align	1
 370              		.syntax unified
 371              		.thumb
 372              		.thumb_func
 373              		.fpu softvfp
 375              	prvWriteMessageToBuffer:
 376              	.LVL27:
 377              	.LFB13:
 378              		.loc 1 644 1 is_stmt 1 view -0
 379              		.cfi_startproc
 380              		@ args = 4, pretend = 0, frame = 8
 381              		@ frame_needed = 0, uses_anonymous_args = 0
 382              		.loc 1 644 1 is_stmt 0 view .LVU106
 383 0000 30B5     		push	{r4, r5, lr}
 384              	.LCFI2:
 385              		.cfi_def_cfa_offset 12
 386              		.cfi_offset 4, -12
 387              		.cfi_offset 5, -8
 388              		.cfi_offset 14, -4
 389 0002 83B0     		sub	sp, sp, #12
 390              	.LCFI3:
 391              		.cfi_def_cfa_offset 24
 392 0004 0546     		mov	r5, r0
 393 0006 0192     		str	r2, [sp, #4]
 394              		.loc 1 645 2 is_stmt 1 view .LVU107
 395              		.loc 1 646 2 view .LVU108
 396              		.loc 1 648 2 view .LVU109
 397              		.loc 1 648 4 is_stmt 0 view .LVU110
 398 0008 1846     		mov	r0, r3
 399              	.LVL28:
 400              		.loc 1 648 4 view .LVU111
 401 000a 6BB1     		cbz	r3, .L24
 402 000c 0C46     		mov	r4, r1
 403              		.loc 1 654 7 is_stmt 1 view .LVU112
 404              		.loc 1 654 27 is_stmt 0 view .LVU113
ARM GAS  C:\Users\Test\AppData\Local\Temp\ccxnBkka.s 			page 8


 405 000e 2B7F     		ldrb	r3, [r5, #28]	@ zero_extendqisi2
 406              	.LVL29:
 407              		.loc 1 654 9 view .LVU114
 408 0010 13F0010F 		tst	r3, #1
 409 0014 0AD1     		bne	.L25
 410              		.loc 1 659 3 is_stmt 1 view .LVU115
 411              	.LVL30:
 412              		.loc 1 660 3 view .LVU116
 413              		.loc 1 660 22 is_stmt 0 view .LVU117
 414 0016 9042     		cmp	r0, r2
 415 0018 28BF     		it	cs
 416 001a 1046     		movcs	r0, r2
 417              	.LVL31:
 418              		.loc 1 660 20 view .LVU118
 419 001c 0190     		str	r0, [sp, #4]
 420              		.loc 1 677 2 is_stmt 1 view .LVU119
 421              	.LVL32:
 422              	.L26:
 423              		.loc 1 680 3 view .LVU120
 424              		.loc 1 680 13 is_stmt 0 view .LVU121
 425 001e 019A     		ldr	r2, [sp, #4]
 426 0020 2146     		mov	r1, r4
 427 0022 2846     		mov	r0, r5
 428 0024 074B     		ldr	r3, .L30
 429 0026 9847     		blx	r3
 430              	.LVL33:
 431              	.L24:
 432              		.loc 1 687 2 is_stmt 1 view .LVU122
 433              		.loc 1 688 1 is_stmt 0 view .LVU123
 434 0028 03B0     		add	sp, sp, #12
 435              	.LCFI4:
 436              		.cfi_remember_state
 437              		.cfi_def_cfa_offset 12
 438              		@ sp needed
 439 002a 30BD     		pop	{r4, r5, pc}
 440              	.LVL34:
 441              	.L25:
 442              	.LCFI5:
 443              		.cfi_restore_state
 444              		.loc 1 662 7 is_stmt 1 view .LVU124
 445              		.loc 1 662 9 is_stmt 0 view .LVU125
 446 002c 069B     		ldr	r3, [sp, #24]
 447 002e 9842     		cmp	r0, r3
 448 0030 01D2     		bcs	.L29
 449              		.loc 1 684 11 view .LVU126
 450 0032 0020     		movs	r0, #0
 451              	.LVL35:
 452              		.loc 1 684 11 view .LVU127
 453 0034 F8E7     		b	.L24
 454              	.LVL36:
 455              	.L29:
 456              		.loc 1 668 3 is_stmt 1 view .LVU128
 457              		.loc 1 669 3 view .LVU129
 458              		.loc 1 669 12 is_stmt 0 view .LVU130
 459 0036 0422     		movs	r2, #4
 460              	.LVL37:
 461              		.loc 1 669 12 view .LVU131
ARM GAS  C:\Users\Test\AppData\Local\Temp\ccxnBkka.s 			page 9


 462 0038 0DEB0201 		add	r1, sp, r2
 463              	.LVL38:
 464              		.loc 1 669 12 view .LVU132
 465 003c 2846     		mov	r0, r5
 466              	.LVL39:
 467              		.loc 1 669 12 view .LVU133
 468 003e 014B     		ldr	r3, .L30
 469 0040 9847     		blx	r3
 470              	.LVL40:
 471              		.loc 1 677 2 is_stmt 1 view .LVU134
 472 0042 ECE7     		b	.L26
 473              	.L31:
 474              		.align	2
 475              	.L30:
 476 0044 00000000 		.word	prvWriteBytesToBuffer
 477              		.cfi_endproc
 478              	.LFE13:
 480              		.section	.text.prvReadBytesFromBuffer,"ax",%progbits
 481              		.align	1
 482              		.syntax unified
 483              		.thumb
 484              		.thumb_func
 485              		.fpu softvfp
 487              	prvReadBytesFromBuffer:
 488              	.LVL41:
 489              	.LFB22:
 490              		.loc 1 1067 1 view -0
 491              		.cfi_startproc
 492              		@ args = 0, pretend = 0, frame = 0
 493              		@ frame_needed = 0, uses_anonymous_args = 0
 494              		.loc 1 1067 1 is_stmt 0 view .LVU136
 495 0000 2DE9F843 		push	{r3, r4, r5, r6, r7, r8, r9, lr}
 496              	.LCFI6:
 497              		.cfi_def_cfa_offset 32
 498              		.cfi_offset 3, -32
 499              		.cfi_offset 4, -28
 500              		.cfi_offset 5, -24
 501              		.cfi_offset 6, -20
 502              		.cfi_offset 7, -16
 503              		.cfi_offset 8, -12
 504              		.cfi_offset 9, -8
 505              		.cfi_offset 14, -4
 506              		.loc 1 1068 1 is_stmt 1 view .LVU137
 507              		.loc 1 1071 2 view .LVU138
 508              		.loc 1 1071 9 is_stmt 0 view .LVU139
 509 0004 9342     		cmp	r3, r2
 510 0006 28BF     		it	cs
 511 0008 1346     		movcs	r3, r2
 512              	.LVL42:
 513              		.loc 1 1071 9 view .LVU140
 514 000a 1C46     		mov	r4, r3
 515              	.LVL43:
 516              		.loc 1 1073 2 is_stmt 1 view .LVU141
 517              		.loc 1 1073 4 is_stmt 0 view .LVU142
 518 000c 002B     		cmp	r3, #0
 519 000e 42D0     		beq	.L32
 520 0010 0746     		mov	r7, r0
ARM GAS  C:\Users\Test\AppData\Local\Temp\ccxnBkka.s 			page 10


 521 0012 8846     		mov	r8, r1
 522 0014 1646     		mov	r6, r2
 523              		.loc 1 1075 3 is_stmt 1 view .LVU143
 524              		.loc 1 1075 13 is_stmt 0 view .LVU144
 525 0016 D0F80090 		ldr	r9, [r0]
 526              	.LVL44:
 527              		.loc 1 1080 3 is_stmt 1 view .LVU145
 528              		.loc 1 1080 18 is_stmt 0 view .LVU146
 529 001a 8368     		ldr	r3, [r0, #8]
 530              	.LVL45:
 531              		.loc 1 1080 18 view .LVU147
 532 001c A3EB0905 		sub	r5, r3, r9
 533              		.loc 1 1080 16 view .LVU148
 534 0020 A542     		cmp	r5, r4
 535 0022 28BF     		it	cs
 536 0024 2546     		movcs	r5, r4
 537              	.LVL46:
 538              		.loc 1 1084 3 is_stmt 1 view .LVU149
 539 0026 AA42     		cmp	r2, r5
 540 0028 08D2     		bcs	.L34
 541              		.loc 1 1084 3 view .LVU150
 542              	.LBB97:
 543              	.LBI97:
 544              		.loc 2 191 30 view .LVU151
 545              	.LBB98:
 546              		.loc 2 193 1 view .LVU152
 547              		.loc 2 195 2 view .LVU153
 548              		.syntax unified
 549              	@ 195 "Middlewares/Third_Party/FreeRTOS/Source/portable/GCC/ARM_CM3/portmacro.h" 1
 550 002a 4FF05003 			mov r3, #80												
 551 002e 83F31188 		msr basepri, r3											
 552 0032 BFF36F8F 		isb														
 553 0036 BFF34F8F 		dsb														
 554              	
 555              	@ 0 "" 2
 556              	.LVL47:
 557              		.thumb
 558              		.syntax unified
 559              	.L35:
 560              		.loc 2 195 2 is_stmt 0 view .LVU154
 561              	.LBE98:
 562              	.LBE97:
 563              		.loc 1 1084 3 is_stmt 1 discriminator 1 view .LVU155
 564              		.loc 1 1084 3 discriminator 1 view .LVU156
 565              		.loc 1 1084 3 discriminator 1 view .LVU157
 566 003a FEE7     		b	.L35
 567              	.L34:
 568              		.loc 1 1084 44 discriminator 2 view .LVU158
 569              		.loc 1 1085 3 discriminator 2 view .LVU159
 570 003c 09EB0502 		add	r2, r9, r5
 571              	.LVL48:
 572              		.loc 1 1085 3 is_stmt 0 discriminator 2 view .LVU160
 573 0040 9342     		cmp	r3, r2
 574 0042 08D2     		bcs	.L36
 575              		.loc 1 1085 3 is_stmt 1 view .LVU161
 576              	.LBB99:
 577              	.LBI99:
ARM GAS  C:\Users\Test\AppData\Local\Temp\ccxnBkka.s 			page 11


 578              		.loc 2 191 30 view .LVU162
 579              	.LBB100:
 580              		.loc 2 193 1 view .LVU163
 581              		.loc 2 195 2 view .LVU164
 582              		.syntax unified
 583              	@ 195 "Middlewares/Third_Party/FreeRTOS/Source/portable/GCC/ARM_CM3/portmacro.h" 1
 584 0044 4FF05003 			mov r3, #80												
 585 0048 83F31188 		msr basepri, r3											
 586 004c BFF36F8F 		isb														
 587 0050 BFF34F8F 		dsb														
 588              	
 589              	@ 0 "" 2
 590              	.LVL49:
 591              		.thumb
 592              		.syntax unified
 593              	.L37:
 594              		.loc 2 195 2 is_stmt 0 view .LVU165
 595              	.LBE100:
 596              	.LBE99:
 597              		.loc 1 1085 3 is_stmt 1 discriminator 2 view .LVU166
 598              		.loc 1 1085 3 discriminator 2 view .LVU167
 599              		.loc 1 1085 3 discriminator 2 view .LVU168
 600 0054 FEE7     		b	.L37
 601              	.L36:
 602              		.loc 1 1085 74 discriminator 2 view .LVU169
 603              		.loc 1 1086 3 discriminator 2 view .LVU170
 604              		.loc 1 1086 65 is_stmt 0 discriminator 2 view .LVU171
 605 0056 8169     		ldr	r1, [r0, #24]
 606              	.LVL50:
 607              		.loc 1 1086 3 discriminator 2 view .LVU172
 608 0058 2A46     		mov	r2, r5
 609 005a 4944     		add	r1, r1, r9
 610 005c 4046     		mov	r0, r8
 611              	.LVL51:
 612              		.loc 1 1086 3 discriminator 2 view .LVU173
 613 005e 0F4B     		ldr	r3, .L43
 614 0060 9847     		blx	r3
 615              	.LVL52:
 616              		.loc 1 1090 3 is_stmt 1 discriminator 2 view .LVU174
 617              		.loc 1 1090 5 is_stmt 0 discriminator 2 view .LVU175
 618 0062 AC42     		cmp	r4, r5
 619 0064 10D9     		bls	.L38
 620              		.loc 1 1093 4 is_stmt 1 view .LVU176
 621 0066 A642     		cmp	r6, r4
 622 0068 08D2     		bcs	.L39
 623              		.loc 1 1093 4 view .LVU177
 624              	.LBB101:
 625              	.LBI101:
 626              		.loc 2 191 30 view .LVU178
 627              	.LBB102:
 628              		.loc 2 193 1 view .LVU179
 629              		.loc 2 195 2 view .LVU180
 630              		.syntax unified
 631              	@ 195 "Middlewares/Third_Party/FreeRTOS/Source/portable/GCC/ARM_CM3/portmacro.h" 1
 632 006a 4FF05003 			mov r3, #80												
 633 006e 83F31188 		msr basepri, r3											
 634 0072 BFF36F8F 		isb														
ARM GAS  C:\Users\Test\AppData\Local\Temp\ccxnBkka.s 			page 12


 635 0076 BFF34F8F 		dsb														
 636              	
 637              	@ 0 "" 2
 638              	.LVL53:
 639              		.thumb
 640              		.syntax unified
 641              	.L40:
 642              		.loc 2 195 2 is_stmt 0 view .LVU181
 643              	.LBE102:
 644              	.LBE101:
 645              		.loc 1 1093 4 is_stmt 1 discriminator 3 view .LVU182
 646              		.loc 1 1093 4 discriminator 3 view .LVU183
 647              		.loc 1 1093 4 discriminator 3 view .LVU184
 648 007a FEE7     		b	.L40
 649              	.L39:
 650              		.loc 1 1093 39 discriminator 2 view .LVU185
 651              		.loc 1 1094 4 discriminator 2 view .LVU186
 652 007c 621B     		subs	r2, r4, r5
 653 007e B969     		ldr	r1, [r7, #24]
 654 0080 08EB0500 		add	r0, r8, r5
 655 0084 054B     		ldr	r3, .L43
 656 0086 9847     		blx	r3
 657              	.LVL54:
 658              	.L38:
 659              		.loc 1 1098 28 view .LVU187
 660              		.loc 1 1103 3 view .LVU188
 661              		.loc 1 1103 13 is_stmt 0 view .LVU189
 662 0088 04EB0903 		add	r3, r4, r9
 663              	.LVL55:
 664              		.loc 1 1105 3 is_stmt 1 view .LVU190
 665              		.loc 1 1105 34 is_stmt 0 view .LVU191
 666 008c BA68     		ldr	r2, [r7, #8]
 667              		.loc 1 1105 5 view .LVU192
 668 008e 9A42     		cmp	r2, r3
 669 0090 00D8     		bhi	.L41
 670              		.loc 1 1107 4 is_stmt 1 view .LVU193
 671              		.loc 1 1107 14 is_stmt 0 view .LVU194
 672 0092 9B1A     		subs	r3, r3, r2
 673              	.LVL56:
 674              	.L41:
 675              		.loc 1 1110 3 is_stmt 1 view .LVU195
 676              		.loc 1 1110 25 is_stmt 0 view .LVU196
 677 0094 3B60     		str	r3, [r7]
 678              		.loc 1 1114 27 is_stmt 1 view .LVU197
 679              		.loc 1 1117 2 view .LVU198
 680              	.LVL57:
 681              	.L32:
 682              		.loc 1 1118 1 is_stmt 0 view .LVU199
 683 0096 2046     		mov	r0, r4
 684 0098 BDE8F883 		pop	{r3, r4, r5, r6, r7, r8, r9, pc}
 685              	.LVL58:
 686              	.L44:
 687              		.loc 1 1118 1 view .LVU200
 688              		.align	2
 689              	.L43:
 690 009c 00000000 		.word	memcpy
 691              		.cfi_endproc
ARM GAS  C:\Users\Test\AppData\Local\Temp\ccxnBkka.s 			page 13


 692              	.LFE22:
 694              		.section	.text.prvReadMessageFromBuffer,"ax",%progbits
 695              		.align	1
 696              		.syntax unified
 697              		.thumb
 698              		.thumb_func
 699              		.fpu softvfp
 701              	prvReadMessageFromBuffer:
 702              	.LVL59:
 703              	.LFB16:
 704              		.loc 1 857 1 is_stmt 1 view -0
 705              		.cfi_startproc
 706              		@ args = 4, pretend = 0, frame = 8
 707              		@ frame_needed = 0, uses_anonymous_args = 0
 708              		.loc 1 857 1 is_stmt 0 view .LVU202
 709 0000 2DE9F047 		push	{r4, r5, r6, r7, r8, r9, r10, lr}
 710              	.LCFI7:
 711              		.cfi_def_cfa_offset 32
 712              		.cfi_offset 4, -32
 713              		.cfi_offset 5, -28
 714              		.cfi_offset 6, -24
 715              		.cfi_offset 7, -20
 716              		.cfi_offset 8, -16
 717              		.cfi_offset 9, -12
 718              		.cfi_offset 10, -8
 719              		.cfi_offset 14, -4
 720 0004 82B0     		sub	sp, sp, #8
 721              	.LCFI8:
 722              		.cfi_def_cfa_offset 40
 723 0006 0646     		mov	r6, r0
 724 0008 0F46     		mov	r7, r1
 725 000a 9046     		mov	r8, r2
 726 000c 1C46     		mov	r4, r3
 727 000e 0A9D     		ldr	r5, [sp, #40]
 728              		.loc 1 858 1 is_stmt 1 view .LVU203
 729              		.loc 1 860 2 view .LVU204
 730              		.loc 1 860 4 is_stmt 0 view .LVU205
 731 0010 4DB9     		cbnz	r5, .L49
 732              		.loc 1 892 3 is_stmt 1 view .LVU206
 733              		.loc 1 892 22 is_stmt 0 view .LVU207
 734 0012 0192     		str	r2, [sp, #4]
 735              	.LVL60:
 736              	.L47:
 737              		.loc 1 896 2 is_stmt 1 view .LVU208
 738              		.loc 1 896 20 is_stmt 0 view .LVU209
 739 0014 2346     		mov	r3, r4
 740 0016 019A     		ldr	r2, [sp, #4]
 741 0018 3946     		mov	r1, r7
 742 001a 3046     		mov	r0, r6
 743 001c 0A4C     		ldr	r4, .L50
 744              	.LVL61:
 745              		.loc 1 896 20 view .LVU210
 746 001e A047     		blx	r4
 747              	.LVL62:
 748              		.loc 1 898 2 is_stmt 1 view .LVU211
 749              		.loc 1 899 1 is_stmt 0 view .LVU212
 750 0020 02B0     		add	sp, sp, #8
ARM GAS  C:\Users\Test\AppData\Local\Temp\ccxnBkka.s 			page 14


 751              	.LCFI9:
 752              		.cfi_remember_state
 753              		.cfi_def_cfa_offset 32
 754              		@ sp needed
 755 0022 BDE8F087 		pop	{r4, r5, r6, r7, r8, r9, r10, pc}
 756              	.LVL63:
 757              	.L49:
 758              	.LCFI10:
 759              		.cfi_restore_state
 760              		.loc 1 866 3 is_stmt 1 view .LVU213
 761              		.loc 1 866 17 is_stmt 0 view .LVU214
 762 0026 D0F800A0 		ldr	r10, [r0]
 763              	.LVL64:
 764              		.loc 1 867 3 is_stmt 1 view .LVU215
 765              		.loc 1 867 12 is_stmt 0 view .LVU216
 766 002a 2A46     		mov	r2, r5
 767              	.LVL65:
 768              		.loc 1 867 12 view .LVU217
 769 002c 01A9     		add	r1, sp, #4
 770              	.LVL66:
 771              		.loc 1 867 12 view .LVU218
 772 002e DFF81890 		ldr	r9, .L50
 773 0032 C847     		blx	r9
 774              	.LVL67:
 775              		.loc 1 871 3 is_stmt 1 view .LVU219
 776              		.loc 1 871 19 is_stmt 0 view .LVU220
 777 0034 641B     		subs	r4, r4, r5
 778              	.LVL68:
 779              		.loc 1 875 3 is_stmt 1 view .LVU221
 780              		.loc 1 875 26 is_stmt 0 view .LVU222
 781 0036 019B     		ldr	r3, [sp, #4]
 782              		.loc 1 875 5 view .LVU223
 783 0038 4345     		cmp	r3, r8
 784 003a EBD9     		bls	.L47
 785              		.loc 1 880 4 is_stmt 1 view .LVU224
 786              		.loc 1 880 26 is_stmt 0 view .LVU225
 787 003c C6F800A0 		str	r10, [r6]
 788              		.loc 1 881 4 is_stmt 1 view .LVU226
 789              		.loc 1 881 23 is_stmt 0 view .LVU227
 790 0040 0023     		movs	r3, #0
 791 0042 0193     		str	r3, [sp, #4]
 792 0044 E6E7     		b	.L47
 793              	.L51:
 794 0046 00BF     		.align	2
 795              	.L50:
 796 0048 00000000 		.word	prvReadBytesFromBuffer
 797              		.cfi_endproc
 798              	.LFE16:
 800              		.section	.text.xStreamBufferGenericCreate,"ax",%progbits
 801              		.align	1
 802              		.global	xStreamBufferGenericCreate
 803              		.syntax unified
 804              		.thumb
 805              		.thumb_func
 806              		.fpu softvfp
 808              	xStreamBufferGenericCreate:
 809              	.LVL69:
ARM GAS  C:\Users\Test\AppData\Local\Temp\ccxnBkka.s 			page 15


 810              	.LFB4:
 811              		.loc 1 220 2 is_stmt 1 view -0
 812              		.cfi_startproc
 813              		@ args = 0, pretend = 0, frame = 0
 814              		@ frame_needed = 0, uses_anonymous_args = 0
 815              		.loc 1 221 2 view .LVU229
 816              		.loc 1 227 3 view .LVU230
 817 0000 0428     		cmp	r0, #4
 818 0002 08D8     		bhi	.L53
 819              		.loc 1 227 3 view .LVU231
 820              	.LBB103:
 821              	.LBI103:
 822              		.loc 2 191 30 view .LVU232
 823              	.LBB104:
 824              		.loc 2 193 1 view .LVU233
 825              		.loc 2 195 2 view .LVU234
 826              		.syntax unified
 827              	@ 195 "Middlewares/Third_Party/FreeRTOS/Source/portable/GCC/ARM_CM3/portmacro.h" 1
 828 0004 4FF05003 			mov r3, #80												
 829 0008 83F31188 		msr basepri, r3											
 830 000c BFF36F8F 		isb														
 831 0010 BFF34F8F 		dsb														
 832              	
 833              	@ 0 "" 2
 834              	.LVL70:
 835              		.thumb
 836              		.syntax unified
 837              	.L54:
 838              		.loc 2 195 2 is_stmt 0 view .LVU235
 839              	.LBE104:
 840              	.LBE103:
 841              		.loc 1 227 3 is_stmt 1 discriminator 1 view .LVU236
 842              		.loc 1 227 3 discriminator 1 view .LVU237
 843              		.loc 1 227 3 discriminator 1 view .LVU238
 844 0014 FEE7     		b	.L54
 845              	.L53:
 846              		.loc 1 220 2 is_stmt 0 discriminator 2 view .LVU239
 847 0016 F0B5     		push	{r4, r5, r6, r7, lr}
 848              	.LCFI11:
 849              		.cfi_def_cfa_offset 20
 850              		.cfi_offset 4, -20
 851              		.cfi_offset 5, -16
 852              		.cfi_offset 6, -12
 853              		.cfi_offset 7, -8
 854              		.cfi_offset 14, -4
 855 0018 83B0     		sub	sp, sp, #12
 856              	.LCFI12:
 857              		.cfi_def_cfa_offset 32
 858 001a 0C46     		mov	r4, r1
 859 001c 1546     		mov	r5, r2
 860              		.loc 1 227 69 is_stmt 1 discriminator 2 view .LVU240
 861              		.loc 1 228 3 discriminator 2 view .LVU241
 862 001e 8842     		cmp	r0, r1
 863 0020 08D2     		bcs	.L55
 864              		.loc 1 228 3 view .LVU242
 865              	.LBB105:
 866              	.LBI105:
ARM GAS  C:\Users\Test\AppData\Local\Temp\ccxnBkka.s 			page 16


 867              		.loc 2 191 30 view .LVU243
 868              	.LBB106:
 869              		.loc 2 193 1 view .LVU244
 870              		.loc 2 195 2 view .LVU245
 871              		.syntax unified
 872              	@ 195 "Middlewares/Third_Party/FreeRTOS/Source/portable/GCC/ARM_CM3/portmacro.h" 1
 873 0022 4FF05003 			mov r3, #80												
 874 0026 83F31188 		msr basepri, r3											
 875 002a BFF36F8F 		isb														
 876 002e BFF34F8F 		dsb														
 877              	
 878              	@ 0 "" 2
 879              	.LVL71:
 880              		.thumb
 881              		.syntax unified
 882              	.L56:
 883              		.loc 2 195 2 is_stmt 0 view .LVU246
 884              	.LBE106:
 885              	.LBE105:
 886              		.loc 1 228 3 is_stmt 1 discriminator 2 view .LVU247
 887              		.loc 1 228 3 discriminator 2 view .LVU248
 888              		.loc 1 228 3 discriminator 2 view .LVU249
 889 0032 FEE7     		b	.L56
 890              	.L55:
 891              		.loc 1 228 57 discriminator 2 view .LVU250
 892              		.loc 1 232 3 discriminator 2 view .LVU251
 893              		.loc 1 232 5 is_stmt 0 discriminator 2 view .LVU252
 894 0034 01B9     		cbnz	r1, .L57
 895              		.loc 1 234 23 view .LVU253
 896 0036 0124     		movs	r4, #1
 897              	.L57:
 898              	.LVL72:
 899              		.loc 1 245 3 is_stmt 1 view .LVU254
 900              		.loc 1 245 19 is_stmt 0 view .LVU255
 901 0038 471C     		adds	r7, r0, #1
 902              	.LVL73:
 903              		.loc 1 246 3 is_stmt 1 view .LVU256
 904              		.loc 1 246 38 is_stmt 0 view .LVU257
 905 003a 2530     		adds	r0, r0, #37
 906 003c 064B     		ldr	r3, .L62
 907 003e 9847     		blx	r3
 908              	.LVL74:
 909              		.loc 1 248 3 is_stmt 1 view .LVU258
 910              		.loc 1 248 5 is_stmt 0 view .LVU259
 911 0040 0646     		mov	r6, r0
 912 0042 30B1     		cbz	r0, .L52
 913              		.loc 1 250 4 is_stmt 1 view .LVU260
 914 0044 0095     		str	r5, [sp]
 915 0046 2346     		mov	r3, r4
 916 0048 3A46     		mov	r2, r7
 917 004a 00F12401 		add	r1, r0, #36
 918 004e 034C     		ldr	r4, .L62+4
 919              	.LVL75:
 920              		.loc 1 250 4 is_stmt 0 view .LVU261
 921 0050 A047     		blx	r4
 922              	.LVL76:
 923              		.loc 1 256 94 is_stmt 1 view .LVU262
ARM GAS  C:\Users\Test\AppData\Local\Temp\ccxnBkka.s 			page 17


 924              		.loc 1 260 56 view .LVU263
 925              		.loc 1 263 3 view .LVU264
 926              	.L52:
 927              		.loc 1 264 2 is_stmt 0 view .LVU265
 928 0052 3046     		mov	r0, r6
 929 0054 03B0     		add	sp, sp, #12
 930              	.LCFI13:
 931              		.cfi_def_cfa_offset 20
 932              		@ sp needed
 933 0056 F0BD     		pop	{r4, r5, r6, r7, pc}
 934              	.LVL77:
 935              	.L63:
 936              		.loc 1 264 2 view .LVU266
 937              		.align	2
 938              	.L62:
 939 0058 00000000 		.word	pvPortMalloc
 940 005c 00000000 		.word	prvInitialiseNewStreamBuffer
 941              		.cfi_endproc
 942              	.LFE4:
 944              		.section	.text.xStreamBufferGenericCreateStatic,"ax",%progbits
 945              		.align	1
 946              		.global	xStreamBufferGenericCreateStatic
 947              		.syntax unified
 948              		.thumb
 949              		.thumb_func
 950              		.fpu softvfp
 952              	xStreamBufferGenericCreateStatic:
 953              	.LVL78:
 954              	.LFB5:
 955              		.loc 1 276 2 is_stmt 1 view -0
 956              		.cfi_startproc
 957              		@ args = 4, pretend = 0, frame = 8
 958              		@ frame_needed = 0, uses_anonymous_args = 0
 959              		.loc 1 277 2 view .LVU268
 960              		.loc 1 278 2 view .LVU269
 961              		.loc 1 280 3 view .LVU270
 962 0000 7BB1     		cbz	r3, .L79
 963              		.loc 1 276 2 is_stmt 0 discriminator 2 view .LVU271
 964 0002 10B5     		push	{r4, lr}
 965              	.LCFI14:
 966              		.cfi_def_cfa_offset 8
 967              		.cfi_offset 4, -8
 968              		.cfi_offset 14, -4
 969 0004 84B0     		sub	sp, sp, #16
 970              	.LCFI15:
 971              		.cfi_def_cfa_offset 24
 972 0006 9C46     		mov	ip, r3
 973              		.loc 1 280 45 is_stmt 1 discriminator 2 view .LVU272
 974              		.loc 1 281 3 discriminator 2 view .LVU273
 975 0008 069B     		ldr	r3, [sp, #24]
 976              	.LVL79:
 977              		.loc 1 281 3 is_stmt 0 discriminator 2 view .LVU274
 978 000a 9BB1     		cbz	r3, .L80
 979              		.loc 1 281 39 is_stmt 1 discriminator 2 view .LVU275
 980              		.loc 1 282 3 discriminator 2 view .LVU276
 981 000c 8142     		cmp	r1, r0
 982 000e 1AD9     		bls	.L69
ARM GAS  C:\Users\Test\AppData\Local\Temp\ccxnBkka.s 			page 18


 983              		.loc 1 282 3 view .LVU277
 984              	.LBB107:
 985              	.LBI107:
 986              		.loc 2 191 30 view .LVU278
 987              	.LBB108:
 988              		.loc 2 193 1 view .LVU279
 989              		.loc 2 195 2 view .LVU280
 990              		.syntax unified
 991              	@ 195 "Middlewares/Third_Party/FreeRTOS/Source/portable/GCC/ARM_CM3/portmacro.h" 1
 992 0010 4FF05003 			mov r3, #80												
 993 0014 83F31188 		msr basepri, r3											
 994 0018 BFF36F8F 		isb														
 995 001c BFF34F8F 		dsb														
 996              	
 997              	@ 0 "" 2
 998              	.LVL80:
 999              		.thumb
 1000              		.syntax unified
 1001              	.L70:
 1002              		.loc 2 195 2 is_stmt 0 view .LVU281
 1003              	.LBE108:
 1004              	.LBE107:
 1005              		.loc 1 282 3 is_stmt 1 discriminator 3 view .LVU282
 1006              		.loc 1 282 3 discriminator 3 view .LVU283
 1007              		.loc 1 282 3 discriminator 3 view .LVU284
 1008 0020 FEE7     		b	.L70
 1009              	.LVL81:
 1010              	.L79:
 1011              	.LCFI16:
 1012              		.cfi_def_cfa_offset 0
 1013              		.cfi_restore 4
 1014              		.cfi_restore 14
 1015              		.loc 1 280 3 view .LVU285
 1016              	.LBB109:
 1017              	.LBI109:
 1018              		.loc 2 191 30 view .LVU286
 1019              	.LBB110:
 1020              		.loc 2 193 1 view .LVU287
 1021              		.loc 2 195 2 view .LVU288
 1022              		.syntax unified
 1023              	@ 195 "Middlewares/Third_Party/FreeRTOS/Source/portable/GCC/ARM_CM3/portmacro.h" 1
 1024 0022 4FF05003 			mov r3, #80												
 1025 0026 83F31188 		msr basepri, r3											
 1026 002a BFF36F8F 		isb														
 1027 002e BFF34F8F 		dsb														
 1028              	
 1029              	@ 0 "" 2
 1030              	.LVL82:
 1031              		.thumb
 1032              		.syntax unified
 1033              	.L66:
 1034              		.loc 2 195 2 is_stmt 0 view .LVU289
 1035              	.LBE110:
 1036              	.LBE109:
 1037              		.loc 1 280 3 is_stmt 1 discriminator 1 view .LVU290
 1038              		.loc 1 280 3 discriminator 1 view .LVU291
 1039              		.loc 1 280 3 discriminator 1 view .LVU292
ARM GAS  C:\Users\Test\AppData\Local\Temp\ccxnBkka.s 			page 19


 1040 0032 FEE7     		b	.L66
 1041              	.LVL83:
 1042              	.L80:
 1043              	.LCFI17:
 1044              		.cfi_def_cfa_offset 24
 1045              		.cfi_offset 4, -8
 1046              		.cfi_offset 14, -4
 1047              		.loc 1 281 3 view .LVU293
 1048              	.LBB111:
 1049              	.LBI111:
 1050              		.loc 2 191 30 view .LVU294
 1051              	.LBB112:
 1052              		.loc 2 193 1 view .LVU295
 1053              		.loc 2 195 2 view .LVU296
 1054              		.syntax unified
 1055              	@ 195 "Middlewares/Third_Party/FreeRTOS/Source/portable/GCC/ARM_CM3/portmacro.h" 1
 1056 0034 4FF05003 			mov r3, #80												
 1057 0038 83F31188 		msr basepri, r3											
 1058 003c BFF36F8F 		isb														
 1059 0040 BFF34F8F 		dsb														
 1060              	
 1061              	@ 0 "" 2
 1062              	.LVL84:
 1063              		.thumb
 1064              		.syntax unified
 1065              	.L68:
 1066              		.loc 2 195 2 is_stmt 0 view .LVU297
 1067              	.LBE112:
 1068              	.LBE111:
 1069              		.loc 1 281 3 is_stmt 1 discriminator 2 view .LVU298
 1070              		.loc 1 281 3 discriminator 2 view .LVU299
 1071              		.loc 1 281 3 discriminator 2 view .LVU300
 1072 0044 FEE7     		b	.L68
 1073              	.L69:
 1074              		.loc 1 282 57 discriminator 2 view .LVU301
 1075              		.loc 1 286 3 discriminator 2 view .LVU302
 1076              		.loc 1 286 5 is_stmt 0 discriminator 2 view .LVU303
 1077 0046 01B9     		cbnz	r1, .L71
 1078              		.loc 1 288 23 view .LVU304
 1079 0048 0121     		movs	r1, #1
 1080              	.LVL85:
 1081              	.L71:
 1082              		.loc 1 295 3 is_stmt 1 view .LVU305
 1083 004a 0428     		cmp	r0, #4
 1084 004c 08D8     		bhi	.L72
 1085              		.loc 1 295 3 view .LVU306
 1086              	.LBB113:
 1087              	.LBI113:
 1088              		.loc 2 191 30 view .LVU307
 1089              	.LBB114:
 1090              		.loc 2 193 1 view .LVU308
 1091              		.loc 2 195 2 view .LVU309
 1092              		.syntax unified
 1093              	@ 195 "Middlewares/Third_Party/FreeRTOS/Source/portable/GCC/ARM_CM3/portmacro.h" 1
 1094 004e 4FF05003 			mov r3, #80												
 1095 0052 83F31188 		msr basepri, r3											
 1096 0056 BFF36F8F 		isb														
ARM GAS  C:\Users\Test\AppData\Local\Temp\ccxnBkka.s 			page 20


 1097 005a BFF34F8F 		dsb														
 1098              	
 1099              	@ 0 "" 2
 1100              	.LVL86:
 1101              		.thumb
 1102              		.syntax unified
 1103              	.L73:
 1104              		.loc 2 195 2 is_stmt 0 view .LVU310
 1105              	.LBE114:
 1106              	.LBE113:
 1107              		.loc 1 295 3 is_stmt 1 discriminator 4 view .LVU311
 1108              		.loc 1 295 3 discriminator 4 view .LVU312
 1109              		.loc 1 295 3 discriminator 4 view .LVU313
 1110 005e FEE7     		b	.L73
 1111              	.L72:
 1112              		.loc 1 295 69 discriminator 2 view .LVU314
 1113              	.LBB115:
 1114              		.loc 1 302 4 discriminator 2 view .LVU315
 1115              		.loc 1 302 20 is_stmt 0 discriminator 2 view .LVU316
 1116 0060 2423     		movs	r3, #36
 1117 0062 0393     		str	r3, [sp, #12]
 1118              		.loc 1 303 4 is_stmt 1 discriminator 2 view .LVU317
 1119 0064 039B     		ldr	r3, [sp, #12]
 1120 0066 242B     		cmp	r3, #36
 1121 0068 08D0     		beq	.L74
 1122              		.loc 1 303 4 view .LVU318
 1123              	.LBB116:
 1124              	.LBI116:
 1125              		.loc 2 191 30 view .LVU319
 1126              	.LBB117:
 1127              		.loc 2 193 1 view .LVU320
 1128              		.loc 2 195 2 view .LVU321
 1129              		.syntax unified
 1130              	@ 195 "Middlewares/Third_Party/FreeRTOS/Source/portable/GCC/ARM_CM3/portmacro.h" 1
 1131 006a 4FF05003 			mov r3, #80												
 1132 006e 83F31188 		msr basepri, r3											
 1133 0072 BFF36F8F 		isb														
 1134 0076 BFF34F8F 		dsb														
 1135              	
 1136              	@ 0 "" 2
 1137              	.LVL87:
 1138              		.thumb
 1139              		.syntax unified
 1140              	.L75:
 1141              		.loc 2 195 2 is_stmt 0 view .LVU322
 1142              	.LBE117:
 1143              	.LBE116:
 1144              		.loc 1 303 4 is_stmt 1 discriminator 5 view .LVU323
 1145              		.loc 1 303 4 discriminator 5 view .LVU324
 1146              		.loc 1 303 4 discriminator 5 view .LVU325
 1147 007a FEE7     		b	.L75
 1148              	.L74:
 1149              		.loc 1 303 53 view .LVU326
 1150              	.LBE115:
 1151              		.loc 1 307 3 view .LVU327
 1152              		.loc 1 309 4 view .LVU328
 1153 007c 0092     		str	r2, [sp]
ARM GAS  C:\Users\Test\AppData\Local\Temp\ccxnBkka.s 			page 21


 1154 007e 0B46     		mov	r3, r1
 1155 0080 0246     		mov	r2, r0
 1156              	.LVL88:
 1157              		.loc 1 309 4 is_stmt 0 view .LVU329
 1158 0082 6146     		mov	r1, ip
 1159              	.LVL89:
 1160              		.loc 1 309 4 view .LVU330
 1161 0084 0698     		ldr	r0, [sp, #24]
 1162              	.LVL90:
 1163              		.loc 1 309 4 view .LVU331
 1164 0086 054C     		ldr	r4, .L81
 1165 0088 A047     		blx	r4
 1166              	.LVL91:
 1167              		.loc 1 317 4 is_stmt 1 view .LVU332
 1168              		.loc 1 317 28 is_stmt 0 view .LVU333
 1169 008a 069B     		ldr	r3, [sp, #24]
 1170 008c 1B7F     		ldrb	r3, [r3, #28]	@ zero_extendqisi2
 1171 008e 43F00203 		orr	r3, r3, #2
 1172 0092 069A     		ldr	r2, [sp, #24]
 1173 0094 1377     		strb	r3, [r2, #28]
 1174              		.loc 1 319 65 is_stmt 1 view .LVU334
 1175              		.loc 1 321 4 view .LVU335
 1176              	.LVL92:
 1177              		.loc 1 326 72 view .LVU336
 1178              		.loc 1 329 3 view .LVU337
 1179              		.loc 1 330 2 is_stmt 0 view .LVU338
 1180 0096 1046     		mov	r0, r2
 1181 0098 04B0     		add	sp, sp, #16
 1182              	.LCFI18:
 1183              		.cfi_def_cfa_offset 8
 1184              		@ sp needed
 1185 009a 10BD     		pop	{r4, pc}
 1186              	.LVL93:
 1187              	.L82:
 1188              		.loc 1 330 2 view .LVU339
 1189              		.align	2
 1190              	.L81:
 1191 009c 00000000 		.word	prvInitialiseNewStreamBuffer
 1192              		.cfi_endproc
 1193              	.LFE5:
 1195              		.section	.text.vStreamBufferDelete,"ax",%progbits
 1196              		.align	1
 1197              		.global	vStreamBufferDelete
 1198              		.syntax unified
 1199              		.thumb
 1200              		.thumb_func
 1201              		.fpu softvfp
 1203              	vStreamBufferDelete:
 1204              	.LVL94:
 1205              	.LFB6:
 1206              		.loc 1 336 1 is_stmt 1 view -0
 1207              		.cfi_startproc
 1208              		@ args = 0, pretend = 0, frame = 0
 1209              		@ frame_needed = 0, uses_anonymous_args = 0
 1210              		.loc 1 336 1 is_stmt 0 view .LVU341
 1211 0000 08B5     		push	{r3, lr}
 1212              	.LCFI19:
ARM GAS  C:\Users\Test\AppData\Local\Temp\ccxnBkka.s 			page 22


 1213              		.cfi_def_cfa_offset 8
 1214              		.cfi_offset 3, -8
 1215              		.cfi_offset 14, -4
 1216              		.loc 1 337 1 is_stmt 1 view .LVU342
 1217              	.LVL95:
 1218              		.loc 1 339 2 view .LVU343
 1219 0002 30B1     		cbz	r0, .L89
 1220              		.loc 1 339 32 discriminator 2 view .LVU344
 1221              		.loc 1 341 44 discriminator 2 view .LVU345
 1222              		.loc 1 343 2 discriminator 2 view .LVU346
 1223              		.loc 1 343 22 is_stmt 0 discriminator 2 view .LVU347
 1224 0004 027F     		ldrb	r2, [r0, #28]	@ zero_extendqisi2
 1225              		.loc 1 343 4 discriminator 2 view .LVU348
 1226 0006 12F0020F 		tst	r2, #2
 1227 000a 0BD1     		bne	.L86
 1228              		.loc 1 349 4 is_stmt 1 view .LVU349
 1229 000c 084B     		ldr	r3, .L90
 1230 000e 9847     		blx	r3
 1231              	.LVL96:
 1232              	.L83:
 1233              		.loc 1 365 1 is_stmt 0 view .LVU350
 1234 0010 08BD     		pop	{r3, pc}
 1235              	.LVL97:
 1236              	.L89:
 1237              		.loc 1 339 2 is_stmt 1 view .LVU351
 1238              	.LBB118:
 1239              	.LBI118:
 1240              		.loc 2 191 30 view .LVU352
 1241              	.LBB119:
 1242              		.loc 2 193 1 view .LVU353
 1243              		.loc 2 195 2 view .LVU354
 1244              		.syntax unified
 1245              	@ 195 "Middlewares/Third_Party/FreeRTOS/Source/portable/GCC/ARM_CM3/portmacro.h" 1
 1246 0012 4FF05003 			mov r3, #80												
 1247 0016 83F31188 		msr basepri, r3											
 1248 001a BFF36F8F 		isb														
 1249 001e BFF34F8F 		dsb														
 1250              	
 1251              	@ 0 "" 2
 1252              	.LVL98:
 1253              		.thumb
 1254              		.syntax unified
 1255              	.L85:
 1256              		.loc 2 195 2 is_stmt 0 view .LVU355
 1257              	.LBE119:
 1258              	.LBE118:
 1259              		.loc 1 339 2 is_stmt 1 discriminator 1 view .LVU356
 1260              		.loc 1 339 2 discriminator 1 view .LVU357
 1261              		.loc 1 339 2 discriminator 1 view .LVU358
 1262 0022 FEE7     		b	.L85
 1263              	.L86:
 1264              		.loc 1 363 3 view .LVU359
 1265 0024 2422     		movs	r2, #36
 1266 0026 0021     		movs	r1, #0
 1267 0028 024B     		ldr	r3, .L90+4
 1268 002a 9847     		blx	r3
 1269              	.LVL99:
ARM GAS  C:\Users\Test\AppData\Local\Temp\ccxnBkka.s 			page 23


 1270              		.loc 1 365 1 is_stmt 0 view .LVU360
 1271 002c F0E7     		b	.L83
 1272              	.L91:
 1273 002e 00BF     		.align	2
 1274              	.L90:
 1275 0030 00000000 		.word	vPortFree
 1276 0034 00000000 		.word	memset
 1277              		.cfi_endproc
 1278              	.LFE6:
 1280              		.section	.text.xStreamBufferReset,"ax",%progbits
 1281              		.align	1
 1282              		.global	xStreamBufferReset
 1283              		.syntax unified
 1284              		.thumb
 1285              		.thumb_func
 1286              		.fpu softvfp
 1288              	xStreamBufferReset:
 1289              	.LVL100:
 1290              	.LFB7:
 1291              		.loc 1 369 1 is_stmt 1 view -0
 1292              		.cfi_startproc
 1293              		@ args = 0, pretend = 0, frame = 0
 1294              		@ frame_needed = 0, uses_anonymous_args = 0
 1295              		.loc 1 370 1 view .LVU362
 1296              		.loc 1 371 1 view .LVU363
 1297              		.loc 1 374 2 view .LVU364
 1298              		.loc 1 377 2 view .LVU365
 1299 0000 40B1     		cbz	r0, .L102
 1300              		.loc 1 369 1 is_stmt 0 discriminator 2 view .LVU366
 1301 0002 70B5     		push	{r4, r5, r6, lr}
 1302              	.LCFI20:
 1303              		.cfi_def_cfa_offset 16
 1304              		.cfi_offset 4, -16
 1305              		.cfi_offset 5, -12
 1306              		.cfi_offset 6, -8
 1307              		.cfi_offset 14, -4
 1308 0004 82B0     		sub	sp, sp, #8
 1309              	.LCFI21:
 1310              		.cfi_def_cfa_offset 24
 1311 0006 0446     		mov	r4, r0
 1312              		.loc 1 377 32 is_stmt 1 discriminator 2 view .LVU367
 1313              		.loc 1 383 3 discriminator 2 view .LVU368
 1314              		.loc 1 383 24 is_stmt 0 discriminator 2 view .LVU369
 1315 0008 056A     		ldr	r5, [r0, #32]
 1316              	.LVL101:
 1317              		.loc 1 388 2 is_stmt 1 discriminator 2 view .LVU370
 1318              		.loc 1 388 20 is_stmt 0 discriminator 2 view .LVU371
 1319 000a 0369     		ldr	r3, [r0, #16]
 1320              		.loc 1 388 4 discriminator 2 view .LVU372
 1321 000c 5BB1     		cbz	r3, .L103
 1322              		.loc 1 371 12 view .LVU373
 1323 000e 0020     		movs	r0, #0
 1324              	.LVL102:
 1325              	.L92:
 1326              		.loc 1 419 1 view .LVU374
 1327 0010 02B0     		add	sp, sp, #8
 1328              	.LCFI22:
ARM GAS  C:\Users\Test\AppData\Local\Temp\ccxnBkka.s 			page 24


 1329              		.cfi_def_cfa_offset 16
 1330              		@ sp needed
 1331 0012 70BD     		pop	{r4, r5, r6, pc}
 1332              	.LVL103:
 1333              	.L102:
 1334              	.LCFI23:
 1335              		.cfi_def_cfa_offset 0
 1336              		.cfi_restore 4
 1337              		.cfi_restore 5
 1338              		.cfi_restore 6
 1339              		.cfi_restore 14
 1340              		.loc 1 377 2 is_stmt 1 view .LVU375
 1341              	.LBB120:
 1342              	.LBI120:
 1343              		.loc 2 191 30 view .LVU376
 1344              	.LBB121:
 1345              		.loc 2 193 1 view .LVU377
 1346              		.loc 2 195 2 view .LVU378
 1347              		.syntax unified
 1348              	@ 195 "Middlewares/Third_Party/FreeRTOS/Source/portable/GCC/ARM_CM3/portmacro.h" 1
 1349 0014 4FF05003 			mov r3, #80												
 1350 0018 83F31188 		msr basepri, r3											
 1351 001c BFF36F8F 		isb														
 1352 0020 BFF34F8F 		dsb														
 1353              	
 1354              	@ 0 "" 2
 1355              	.LVL104:
 1356              		.thumb
 1357              		.syntax unified
 1358              	.L94:
 1359              		.loc 2 195 2 is_stmt 0 view .LVU379
 1360              	.LBE121:
 1361              	.LBE120:
 1362              		.loc 1 377 2 is_stmt 1 discriminator 1 view .LVU380
 1363              		.loc 1 377 2 discriminator 1 view .LVU381
 1364              		.loc 1 377 2 discriminator 1 view .LVU382
 1365 0024 FEE7     		b	.L94
 1366              	.LVL105:
 1367              	.L103:
 1368              	.LCFI24:
 1369              		.cfi_def_cfa_offset 24
 1370              		.cfi_offset 4, -16
 1371              		.cfi_offset 5, -12
 1372              		.cfi_offset 6, -8
 1373              		.cfi_offset 14, -4
 1374              		.loc 1 390 3 view .LVU383
 1375              		.loc 1 390 21 is_stmt 0 view .LVU384
 1376 0026 4369     		ldr	r3, [r0, #20]
 1377              		.loc 1 390 5 view .LVU385
 1378 0028 0BB1     		cbz	r3, .L104
 1379              		.loc 1 371 12 view .LVU386
 1380 002a 0020     		movs	r0, #0
 1381              	.LVL106:
 1382              		.loc 1 414 45 is_stmt 1 view .LVU387
 1383              		.loc 1 418 2 view .LVU388
 1384              		.loc 1 418 9 is_stmt 0 view .LVU389
 1385 002c F0E7     		b	.L92
ARM GAS  C:\Users\Test\AppData\Local\Temp\ccxnBkka.s 			page 25


 1386              	.LVL107:
 1387              	.L104:
 1388              		.loc 1 392 4 is_stmt 1 view .LVU390
 1389              		.loc 1 392 24 is_stmt 0 view .LVU391
 1390 002e 037F     		ldrb	r3, [r0, #28]	@ zero_extendqisi2
 1391              		.loc 1 392 6 view .LVU392
 1392 0030 13F0010F 		tst	r3, #1
 1393 0034 0AD0     		beq	.L99
 1394              		.loc 1 394 22 view .LVU393
 1395 0036 0123     		movs	r3, #1
 1396              	.L96:
 1397              	.LVL108:
 1398              		.loc 1 401 4 is_stmt 1 view .LVU394
 1399 0038 0093     		str	r3, [sp]
 1400 003a E368     		ldr	r3, [r4, #12]
 1401              	.LVL109:
 1402              		.loc 1 401 4 is_stmt 0 view .LVU395
 1403 003c A268     		ldr	r2, [r4, #8]
 1404 003e A169     		ldr	r1, [r4, #24]
 1405 0040 2046     		mov	r0, r4
 1406              	.LVL110:
 1407              		.loc 1 401 4 view .LVU396
 1408 0042 034E     		ldr	r6, .L105
 1409 0044 B047     		blx	r6
 1410              	.LVL111:
 1411              		.loc 1 406 4 is_stmt 1 view .LVU397
 1412              		.loc 1 410 5 view .LVU398
 1413              		.loc 1 410 42 is_stmt 0 view .LVU399
 1414 0046 2562     		str	r5, [r4, #32]
 1415              		.loc 1 406 12 view .LVU400
 1416 0048 0120     		movs	r0, #1
 1417 004a E1E7     		b	.L92
 1418              	.LVL112:
 1419              	.L99:
 1420              		.loc 1 398 22 view .LVU401
 1421 004c 0023     		movs	r3, #0
 1422 004e F3E7     		b	.L96
 1423              	.L106:
 1424              		.align	2
 1425              	.L105:
 1426 0050 00000000 		.word	prvInitialiseNewStreamBuffer
 1427              		.cfi_endproc
 1428              	.LFE7:
 1430              		.section	.text.xStreamBufferSetTriggerLevel,"ax",%progbits
 1431              		.align	1
 1432              		.global	xStreamBufferSetTriggerLevel
 1433              		.syntax unified
 1434              		.thumb
 1435              		.thumb_func
 1436              		.fpu softvfp
 1438              	xStreamBufferSetTriggerLevel:
 1439              	.LVL113:
 1440              	.LFB8:
 1441              		.loc 1 423 1 is_stmt 1 view -0
 1442              		.cfi_startproc
 1443              		@ args = 0, pretend = 0, frame = 0
 1444              		@ frame_needed = 0, uses_anonymous_args = 0
ARM GAS  C:\Users\Test\AppData\Local\Temp\ccxnBkka.s 			page 26


 1445              		@ link register save eliminated.
 1446              		.loc 1 424 1 view .LVU403
 1447              		.loc 1 425 1 view .LVU404
 1448              		.loc 1 427 2 view .LVU405
 1449 0000 0346     		mov	r3, r0
 1450 0002 38B1     		cbz	r0, .L114
 1451              		.loc 1 427 32 discriminator 2 view .LVU406
 1452              		.loc 1 430 2 discriminator 2 view .LVU407
 1453              		.loc 1 430 4 is_stmt 0 discriminator 2 view .LVU408
 1454 0004 01B9     		cbnz	r1, .L110
 1455              		.loc 1 432 17 view .LVU409
 1456 0006 0121     		movs	r1, #1
 1457              	.LVL114:
 1458              	.L110:
 1459              		.loc 1 437 2 is_stmt 1 view .LVU410
 1460              		.loc 1 437 37 is_stmt 0 view .LVU411
 1461 0008 9A68     		ldr	r2, [r3, #8]
 1462              		.loc 1 437 4 view .LVU412
 1463 000a 8A42     		cmp	r2, r1
 1464 000c 0BD3     		bcc	.L113
 1465              		.loc 1 439 3 is_stmt 1 view .LVU413
 1466              		.loc 1 439 38 is_stmt 0 view .LVU414
 1467 000e D960     		str	r1, [r3, #12]
 1468              		.loc 1 440 3 is_stmt 1 view .LVU415
 1469              	.LVL115:
 1470              		.loc 1 440 11 is_stmt 0 view .LVU416
 1471 0010 0120     		movs	r0, #1
 1472              	.LVL116:
 1473              		.loc 1 440 11 view .LVU417
 1474 0012 7047     		bx	lr
 1475              	.LVL117:
 1476              	.L114:
 1477              		.loc 1 427 2 is_stmt 1 view .LVU418
 1478              	.LBB122:
 1479              	.LBI122:
 1480              		.loc 2 191 30 view .LVU419
 1481              	.LBB123:
 1482              		.loc 2 193 1 view .LVU420
 1483              		.loc 2 195 2 view .LVU421
 1484              		.syntax unified
 1485              	@ 195 "Middlewares/Third_Party/FreeRTOS/Source/portable/GCC/ARM_CM3/portmacro.h" 1
 1486 0014 4FF05003 			mov r3, #80												
 1487 0018 83F31188 		msr basepri, r3											
 1488 001c BFF36F8F 		isb														
 1489 0020 BFF34F8F 		dsb														
 1490              	
 1491              	@ 0 "" 2
 1492              	.LVL118:
 1493              		.thumb
 1494              		.syntax unified
 1495              	.L109:
 1496              		.loc 2 195 2 is_stmt 0 view .LVU422
 1497              	.LBE123:
 1498              	.LBE122:
 1499              		.loc 1 427 2 is_stmt 1 discriminator 1 view .LVU423
 1500              		.loc 1 427 2 discriminator 1 view .LVU424
 1501              		.loc 1 427 2 discriminator 1 view .LVU425
ARM GAS  C:\Users\Test\AppData\Local\Temp\ccxnBkka.s 			page 27


 1502 0024 FEE7     		b	.L109
 1503              	.L113:
 1504              		.loc 1 444 11 is_stmt 0 view .LVU426
 1505 0026 0020     		movs	r0, #0
 1506              	.LVL119:
 1507              		.loc 1 447 2 is_stmt 1 view .LVU427
 1508              		.loc 1 448 1 is_stmt 0 view .LVU428
 1509 0028 7047     		bx	lr
 1510              		.cfi_endproc
 1511              	.LFE8:
 1513              		.section	.text.xStreamBufferSpacesAvailable,"ax",%progbits
 1514              		.align	1
 1515              		.global	xStreamBufferSpacesAvailable
 1516              		.syntax unified
 1517              		.thumb
 1518              		.thumb_func
 1519              		.fpu softvfp
 1521              	xStreamBufferSpacesAvailable:
 1522              	.LVL120:
 1523              	.LFB9:
 1524              		.loc 1 452 1 is_stmt 1 view -0
 1525              		.cfi_startproc
 1526              		@ args = 0, pretend = 0, frame = 0
 1527              		@ frame_needed = 0, uses_anonymous_args = 0
 1528              		@ link register save eliminated.
 1529              		.loc 1 453 1 view .LVU430
 1530              		.loc 1 454 1 view .LVU431
 1531              		.loc 1 456 2 view .LVU432
 1532 0000 0346     		mov	r3, r0
 1533 0002 48B1     		cbz	r0, .L119
 1534              		.loc 1 456 32 discriminator 2 view .LVU433
 1535              		.loc 1 458 2 discriminator 2 view .LVU434
 1536              		.loc 1 458 25 is_stmt 0 discriminator 2 view .LVU435
 1537 0004 8268     		ldr	r2, [r0, #8]
 1538              		.loc 1 458 51 discriminator 2 view .LVU436
 1539 0006 0068     		ldr	r0, [r0]
 1540              	.LVL121:
 1541              		.loc 1 458 9 discriminator 2 view .LVU437
 1542 0008 1044     		add	r0, r0, r2
 1543              	.LVL122:
 1544              		.loc 1 459 2 is_stmt 1 discriminator 2 view .LVU438
 1545              		.loc 1 459 26 is_stmt 0 discriminator 2 view .LVU439
 1546 000a 5B68     		ldr	r3, [r3, #4]
 1547              	.LVL123:
 1548              		.loc 1 459 9 discriminator 2 view .LVU440
 1549 000c C01A     		subs	r0, r0, r3
 1550              	.LVL124:
 1551              		.loc 1 460 2 is_stmt 1 discriminator 2 view .LVU441
 1552              		.loc 1 460 9 is_stmt 0 discriminator 2 view .LVU442
 1553 000e 0138     		subs	r0, r0, #1
 1554              	.LVL125:
 1555              		.loc 1 462 2 is_stmt 1 discriminator 2 view .LVU443
 1556              		.loc 1 462 4 is_stmt 0 discriminator 2 view .LVU444
 1557 0010 8242     		cmp	r2, r0
 1558 0012 00D8     		bhi	.L115
 1559              		.loc 1 464 3 is_stmt 1 view .LVU445
 1560              		.loc 1 464 10 is_stmt 0 view .LVU446
ARM GAS  C:\Users\Test\AppData\Local\Temp\ccxnBkka.s 			page 28


 1561 0014 801A     		subs	r0, r0, r2
 1562              	.LVL126:
 1563              		.loc 1 468 27 is_stmt 1 view .LVU447
 1564              		.loc 1 471 2 view .LVU448
 1565              	.L115:
 1566              		.loc 1 472 1 is_stmt 0 view .LVU449
 1567 0016 7047     		bx	lr
 1568              	.LVL127:
 1569              	.L119:
 1570              		.loc 1 456 2 is_stmt 1 view .LVU450
 1571              	.LBB124:
 1572              	.LBI124:
 1573              		.loc 2 191 30 view .LVU451
 1574              	.LBB125:
 1575              		.loc 2 193 1 view .LVU452
 1576              		.loc 2 195 2 view .LVU453
 1577              		.syntax unified
 1578              	@ 195 "Middlewares/Third_Party/FreeRTOS/Source/portable/GCC/ARM_CM3/portmacro.h" 1
 1579 0018 4FF05003 			mov r3, #80												
 1580 001c 83F31188 		msr basepri, r3											
 1581 0020 BFF36F8F 		isb														
 1582 0024 BFF34F8F 		dsb														
 1583              	
 1584              	@ 0 "" 2
 1585              	.LVL128:
 1586              		.thumb
 1587              		.syntax unified
 1588              	.L117:
 1589              		.loc 2 195 2 is_stmt 0 view .LVU454
 1590              	.LBE125:
 1591              	.LBE124:
 1592              		.loc 1 456 2 is_stmt 1 discriminator 1 view .LVU455
 1593              		.loc 1 456 2 discriminator 1 view .LVU456
 1594              		.loc 1 456 2 discriminator 1 view .LVU457
 1595 0028 FEE7     		b	.L117
 1596              		.cfi_endproc
 1597              	.LFE9:
 1599              		.section	.text.xStreamBufferBytesAvailable,"ax",%progbits
 1600              		.align	1
 1601              		.global	xStreamBufferBytesAvailable
 1602              		.syntax unified
 1603              		.thumb
 1604              		.thumb_func
 1605              		.fpu softvfp
 1607              	xStreamBufferBytesAvailable:
 1608              	.LVL129:
 1609              	.LFB10:
 1610              		.loc 1 476 1 view -0
 1611              		.cfi_startproc
 1612              		@ args = 0, pretend = 0, frame = 0
 1613              		@ frame_needed = 0, uses_anonymous_args = 0
 1614              		.loc 1 476 1 is_stmt 0 view .LVU459
 1615 0000 08B5     		push	{r3, lr}
 1616              	.LCFI25:
 1617              		.cfi_def_cfa_offset 8
 1618              		.cfi_offset 3, -8
 1619              		.cfi_offset 14, -4
ARM GAS  C:\Users\Test\AppData\Local\Temp\ccxnBkka.s 			page 29


 1620              		.loc 1 477 1 is_stmt 1 view .LVU460
 1621              	.LVL130:
 1622              		.loc 1 478 1 view .LVU461
 1623              		.loc 1 480 2 view .LVU462
 1624 0002 10B1     		cbz	r0, .L124
 1625              		.loc 1 480 32 discriminator 2 view .LVU463
 1626              		.loc 1 482 2 discriminator 2 view .LVU464
 1627              		.loc 1 482 12 is_stmt 0 discriminator 2 view .LVU465
 1628 0004 054B     		ldr	r3, .L125
 1629 0006 9847     		blx	r3
 1630              	.LVL131:
 1631              		.loc 1 483 2 is_stmt 1 discriminator 2 view .LVU466
 1632              		.loc 1 484 1 is_stmt 0 discriminator 2 view .LVU467
 1633 0008 08BD     		pop	{r3, pc}
 1634              	.LVL132:
 1635              	.L124:
 1636              		.loc 1 480 2 is_stmt 1 view .LVU468
 1637              	.LBB126:
 1638              	.LBI126:
 1639              		.loc 2 191 30 view .LVU469
 1640              	.LBB127:
 1641              		.loc 2 193 1 view .LVU470
 1642              		.loc 2 195 2 view .LVU471
 1643              		.syntax unified
 1644              	@ 195 "Middlewares/Third_Party/FreeRTOS/Source/portable/GCC/ARM_CM3/portmacro.h" 1
 1645 000a 4FF05003 			mov r3, #80												
 1646 000e 83F31188 		msr basepri, r3											
 1647 0012 BFF36F8F 		isb														
 1648 0016 BFF34F8F 		dsb														
 1649              	
 1650              	@ 0 "" 2
 1651              	.LVL133:
 1652              		.thumb
 1653              		.syntax unified
 1654              	.L122:
 1655              		.loc 2 195 2 is_stmt 0 view .LVU472
 1656              	.LBE127:
 1657              	.LBE126:
 1658              		.loc 1 480 2 is_stmt 1 discriminator 1 view .LVU473
 1659              		.loc 1 480 2 discriminator 1 view .LVU474
 1660              		.loc 1 480 2 discriminator 1 view .LVU475
 1661 001a FEE7     		b	.L122
 1662              	.L126:
 1663              		.align	2
 1664              	.L125:
 1665 001c 00000000 		.word	prvBytesInBuffer
 1666              		.cfi_endproc
 1667              	.LFE10:
 1669              		.section	.text.xStreamBufferSend,"ax",%progbits
 1670              		.align	1
 1671              		.global	xStreamBufferSend
 1672              		.syntax unified
 1673              		.thumb
 1674              		.thumb_func
 1675              		.fpu softvfp
 1677              	xStreamBufferSend:
 1678              	.LVL134:
ARM GAS  C:\Users\Test\AppData\Local\Temp\ccxnBkka.s 			page 30


 1679              	.LFB11:
 1680              		.loc 1 491 1 view -0
 1681              		.cfi_startproc
 1682              		@ args = 0, pretend = 0, frame = 16
 1683              		@ frame_needed = 0, uses_anonymous_args = 0
 1684              		.loc 1 491 1 is_stmt 0 view .LVU477
 1685 0000 2DE9F043 		push	{r4, r5, r6, r7, r8, r9, lr}
 1686              	.LCFI26:
 1687              		.cfi_def_cfa_offset 28
 1688              		.cfi_offset 4, -28
 1689              		.cfi_offset 5, -24
 1690              		.cfi_offset 6, -20
 1691              		.cfi_offset 7, -16
 1692              		.cfi_offset 8, -12
 1693              		.cfi_offset 9, -8
 1694              		.cfi_offset 14, -4
 1695 0004 87B0     		sub	sp, sp, #28
 1696              	.LCFI27:
 1697              		.cfi_def_cfa_offset 56
 1698 0006 0393     		str	r3, [sp, #12]
 1699              		.loc 1 492 1 is_stmt 1 view .LVU478
 1700              	.LVL135:
 1701              		.loc 1 493 1 view .LVU479
 1702              		.loc 1 494 1 view .LVU480
 1703              		.loc 1 495 1 view .LVU481
 1704              		.loc 1 497 2 view .LVU482
 1705 0008 0029     		cmp	r1, #0
 1706 000a 31D0     		beq	.L144
 1707 000c 0446     		mov	r4, r0
 1708 000e 9146     		mov	r9, r2
 1709 0010 8846     		mov	r8, r1
 1710              		.loc 1 497 26 discriminator 2 view .LVU483
 1711              		.loc 1 498 2 discriminator 2 view .LVU484
 1712 0012 0028     		cmp	r0, #0
 1713 0014 35D0     		beq	.L145
 1714              		.loc 1 498 32 discriminator 2 view .LVU485
 1715              		.loc 1 504 2 discriminator 2 view .LVU486
 1716              		.loc 1 504 22 is_stmt 0 discriminator 2 view .LVU487
 1717 0016 037F     		ldrb	r3, [r0, #28]	@ zero_extendqisi2
 1718              	.LVL136:
 1719              		.loc 1 504 4 discriminator 2 view .LVU488
 1720 0018 13F0010F 		tst	r3, #1
 1721 001c 3AD0     		beq	.L142
 1722              		.loc 1 506 3 is_stmt 1 view .LVU489
 1723              		.loc 1 506 18 is_stmt 0 view .LVU490
 1724 001e 171D     		adds	r7, r2, #4
 1725              	.LVL137:
 1726              	.L132:
 1727              		.loc 1 510 27 is_stmt 1 view .LVU491
 1728              		.loc 1 513 2 view .LVU492
 1729              		.loc 1 513 19 is_stmt 0 view .LVU493
 1730 0020 039B     		ldr	r3, [sp, #12]
 1731              		.loc 1 513 4 view .LVU494
 1732 0022 002B     		cmp	r3, #0
 1733 0024 44D0     		beq	.L133
 1734              		.loc 1 515 3 is_stmt 1 view .LVU495
 1735 0026 04A8     		add	r0, sp, #16
ARM GAS  C:\Users\Test\AppData\Local\Temp\ccxnBkka.s 			page 31


 1736              	.LVL138:
 1737              		.loc 1 515 3 is_stmt 0 view .LVU496
 1738 0028 344B     		ldr	r3, .L148
 1739 002a 9847     		blx	r3
 1740              	.LVL139:
 1741              	.L137:
 1742              		.loc 1 517 3 is_stmt 1 view .LVU497
 1743              		.loc 1 521 4 view .LVU498
 1744 002c 344B     		ldr	r3, .L148+4
 1745 002e 9847     		blx	r3
 1746              	.LVL140:
 1747              		.loc 1 523 5 view .LVU499
 1748              		.loc 1 523 14 is_stmt 0 view .LVU500
 1749 0030 2046     		mov	r0, r4
 1750 0032 344B     		ldr	r3, .L148+8
 1751 0034 9847     		blx	r3
 1752              	.LVL141:
 1753 0036 0546     		mov	r5, r0
 1754              	.LVL142:
 1755              		.loc 1 525 5 is_stmt 1 view .LVU501
 1756              		.loc 1 525 7 is_stmt 0 view .LVU502
 1757 0038 8742     		cmp	r7, r0
 1758 003a 36D9     		bls	.L134
 1759              		.loc 1 528 6 is_stmt 1 view .LVU503
 1760              		.loc 1 528 15 is_stmt 0 view .LVU504
 1761 003c 0020     		movs	r0, #0
 1762              	.LVL143:
 1763              		.loc 1 528 15 view .LVU505
 1764 003e 324B     		ldr	r3, .L148+12
 1765 0040 9847     		blx	r3
 1766              	.LVL144:
 1767              		.loc 1 531 6 is_stmt 1 view .LVU506
 1768 0042 6369     		ldr	r3, [r4, #20]
 1769 0044 43BB     		cbnz	r3, .L146
 1770              		.loc 1 531 64 discriminator 2 view .LVU507
 1771              		.loc 1 532 6 discriminator 2 view .LVU508
 1772              		.loc 1 532 43 is_stmt 0 discriminator 2 view .LVU509
 1773 0046 314B     		ldr	r3, .L148+16
 1774 0048 9847     		blx	r3
 1775              	.LVL145:
 1776              		.loc 1 532 41 discriminator 2 view .LVU510
 1777 004a 6061     		str	r0, [r4, #20]
 1778              		.loc 1 540 4 is_stmt 1 discriminator 2 view .LVU511
 1779 004c 304B     		ldr	r3, .L148+20
 1780 004e 9847     		blx	r3
 1781              	.LVL146:
 1782              		.loc 1 542 56 discriminator 2 view .LVU512
 1783              		.loc 1 543 4 discriminator 2 view .LVU513
 1784              		.loc 1 543 13 is_stmt 0 discriminator 2 view .LVU514
 1785 0050 039B     		ldr	r3, [sp, #12]
 1786 0052 0022     		movs	r2, #0
 1787 0054 4FF0FF31 		mov	r1, #-1
 1788 0058 1046     		mov	r0, r2
 1789 005a 2E4E     		ldr	r6, .L148+24
 1790 005c B047     		blx	r6
 1791              	.LVL147:
 1792              		.loc 1 544 4 is_stmt 1 discriminator 2 view .LVU515
ARM GAS  C:\Users\Test\AppData\Local\Temp\ccxnBkka.s 			page 32


 1793              		.loc 1 544 39 is_stmt 0 discriminator 2 view .LVU516
 1794 005e 0023     		movs	r3, #0
 1795 0060 6361     		str	r3, [r4, #20]
 1796              		.loc 1 546 10 is_stmt 1 discriminator 2 view .LVU517
 1797              		.loc 1 546 12 is_stmt 0 discriminator 2 view .LVU518
 1798 0062 03A9     		add	r1, sp, #12
 1799 0064 04A8     		add	r0, sp, #16
 1800 0066 2C4B     		ldr	r3, .L148+28
 1801 0068 9847     		blx	r3
 1802              	.LVL148:
 1803              		.loc 1 546 3 discriminator 2 view .LVU519
 1804 006a 0028     		cmp	r0, #0
 1805 006c DED0     		beq	.L137
 1806 006e 1EE0     		b	.L138
 1807              	.LVL149:
 1808              	.L144:
 1809              		.loc 1 497 2 is_stmt 1 view .LVU520
 1810              	.LBB128:
 1811              	.LBI128:
 1812              		.loc 2 191 30 view .LVU521
 1813              	.LBB129:
 1814              		.loc 2 193 1 view .LVU522
 1815              		.loc 2 195 2 view .LVU523
 1816              		.syntax unified
 1817              	@ 195 "Middlewares/Third_Party/FreeRTOS/Source/portable/GCC/ARM_CM3/portmacro.h" 1
 1818 0070 4FF05003 			mov r3, #80												
 1819 0074 83F31188 		msr basepri, r3											
 1820 0078 BFF36F8F 		isb														
 1821 007c BFF34F8F 		dsb														
 1822              	
 1823              	@ 0 "" 2
 1824              	.LVL150:
 1825              		.thumb
 1826              		.syntax unified
 1827              	.L129:
 1828              		.loc 2 195 2 is_stmt 0 view .LVU524
 1829              	.LBE129:
 1830              	.LBE128:
 1831              		.loc 1 497 2 is_stmt 1 discriminator 1 view .LVU525
 1832              		.loc 1 497 2 discriminator 1 view .LVU526
 1833              		.loc 1 497 2 discriminator 1 view .LVU527
 1834 0080 FEE7     		b	.L129
 1835              	.LVL151:
 1836              	.L145:
 1837              		.loc 1 498 2 view .LVU528
 1838              	.LBB130:
 1839              	.LBI130:
 1840              		.loc 2 191 30 view .LVU529
 1841              	.LBB131:
 1842              		.loc 2 193 1 view .LVU530
 1843              		.loc 2 195 2 view .LVU531
 1844              		.syntax unified
 1845              	@ 195 "Middlewares/Third_Party/FreeRTOS/Source/portable/GCC/ARM_CM3/portmacro.h" 1
 1846 0082 4FF05003 			mov r3, #80												
 1847 0086 83F31188 		msr basepri, r3											
 1848 008a BFF36F8F 		isb														
 1849 008e BFF34F8F 		dsb														
ARM GAS  C:\Users\Test\AppData\Local\Temp\ccxnBkka.s 			page 33


 1850              	
 1851              	@ 0 "" 2
 1852              	.LVL152:
 1853              		.thumb
 1854              		.syntax unified
 1855              	.L131:
 1856              		.loc 2 195 2 is_stmt 0 view .LVU532
 1857              	.LBE131:
 1858              	.LBE130:
 1859              		.loc 1 498 2 is_stmt 1 discriminator 2 view .LVU533
 1860              		.loc 1 498 2 discriminator 2 view .LVU534
 1861              		.loc 1 498 2 discriminator 2 view .LVU535
 1862 0092 FEE7     		b	.L131
 1863              	.L142:
 1864              		.loc 1 494 8 is_stmt 0 view .LVU536
 1865 0094 1746     		mov	r7, r2
 1866 0096 C3E7     		b	.L132
 1867              	.LVL153:
 1868              	.L146:
 1869              		.loc 1 531 6 is_stmt 1 view .LVU537
 1870              	.LBB132:
 1871              	.LBI132:
 1872              		.loc 2 191 30 view .LVU538
 1873              	.LBB133:
 1874              		.loc 2 193 1 view .LVU539
 1875              		.loc 2 195 2 view .LVU540
 1876              		.syntax unified
 1877              	@ 195 "Middlewares/Third_Party/FreeRTOS/Source/portable/GCC/ARM_CM3/portmacro.h" 1
 1878 0098 4FF05003 			mov r3, #80												
 1879 009c 83F31188 		msr basepri, r3											
 1880 00a0 BFF36F8F 		isb														
 1881 00a4 BFF34F8F 		dsb														
 1882              	
 1883              	@ 0 "" 2
 1884              	.LVL154:
 1885              		.thumb
 1886              		.syntax unified
 1887              	.L136:
 1888              		.loc 2 195 2 is_stmt 0 view .LVU541
 1889              	.LBE133:
 1890              	.LBE132:
 1891              		.loc 1 531 6 is_stmt 1 discriminator 3 view .LVU542
 1892              		.loc 1 531 6 discriminator 3 view .LVU543
 1893              		.loc 1 531 6 discriminator 3 view .LVU544
 1894 00a8 FEE7     		b	.L136
 1895              	.LVL155:
 1896              	.L134:
 1897              		.loc 1 536 6 view .LVU545
 1898 00aa 194B     		ldr	r3, .L148+20
 1899 00ac 9847     		blx	r3
 1900              	.LVL156:
 1901              		.loc 1 537 6 view .LVU546
 1902              	.L138:
 1903              		.loc 1 550 27 view .LVU547
 1904              		.loc 1 553 2 view .LVU548
 1905              		.loc 1 553 4 is_stmt 0 view .LVU549
 1906 00ae 1DB9     		cbnz	r5, .L139
ARM GAS  C:\Users\Test\AppData\Local\Temp\ccxnBkka.s 			page 34


 1907              	.LVL157:
 1908              	.L133:
 1909              		.loc 1 555 3 is_stmt 1 view .LVU550
 1910              		.loc 1 555 12 is_stmt 0 view .LVU551
 1911 00b0 2046     		mov	r0, r4
 1912 00b2 144B     		ldr	r3, .L148+8
 1913 00b4 9847     		blx	r3
 1914              	.LVL158:
 1915 00b6 0546     		mov	r5, r0
 1916              	.LVL159:
 1917              	.L139:
 1918              		.loc 1 559 27 is_stmt 1 view .LVU552
 1919              		.loc 1 562 2 view .LVU553
 1920              		.loc 1 562 12 is_stmt 0 view .LVU554
 1921 00b8 0097     		str	r7, [sp]
 1922 00ba 2B46     		mov	r3, r5
 1923 00bc 4A46     		mov	r2, r9
 1924 00be 4146     		mov	r1, r8
 1925 00c0 2046     		mov	r0, r4
 1926 00c2 164D     		ldr	r5, .L148+32
 1927              	.LVL160:
 1928              		.loc 1 562 12 view .LVU555
 1929 00c4 A847     		blx	r5
 1930              	.LVL161:
 1931              		.loc 1 564 2 is_stmt 1 view .LVU556
 1932              		.loc 1 564 4 is_stmt 0 view .LVU557
 1933 00c6 0546     		mov	r5, r0
 1934 00c8 18B9     		cbnz	r0, .L147
 1935              	.LVL162:
 1936              	.L127:
 1937              		.loc 1 585 1 view .LVU558
 1938 00ca 2846     		mov	r0, r5
 1939 00cc 07B0     		add	sp, sp, #28
 1940              	.LCFI28:
 1941              		.cfi_remember_state
 1942              		.cfi_def_cfa_offset 28
 1943              		@ sp needed
 1944 00ce BDE8F083 		pop	{r4, r5, r6, r7, r8, r9, pc}
 1945              	.LVL163:
 1946              	.L147:
 1947              	.LCFI29:
 1948              		.cfi_restore_state
 1949              		.loc 1 566 52 is_stmt 1 view .LVU559
 1950              		.loc 1 569 3 view .LVU560
 1951              		.loc 1 569 7 is_stmt 0 view .LVU561
 1952 00d2 2046     		mov	r0, r4
 1953              	.LVL164:
 1954              		.loc 1 569 7 view .LVU562
 1955 00d4 124B     		ldr	r3, .L148+36
 1956 00d6 9847     		blx	r3
 1957              	.LVL165:
 1958              		.loc 1 569 59 view .LVU563
 1959 00d8 E368     		ldr	r3, [r4, #12]
 1960              		.loc 1 569 5 view .LVU564
 1961 00da 9842     		cmp	r0, r3
 1962 00dc F5D3     		bcc	.L127
 1963              		.loc 1 571 4 is_stmt 1 view .LVU565
ARM GAS  C:\Users\Test\AppData\Local\Temp\ccxnBkka.s 			page 35


 1964 00de 114B     		ldr	r3, .L148+40
 1965 00e0 9847     		blx	r3
 1966              	.LVL166:
 1967              		.loc 1 571 4 view .LVU566
 1968 00e2 2369     		ldr	r3, [r4, #16]
 1969 00e4 3BB1     		cbz	r3, .L141
 1970              		.loc 1 571 4 discriminator 1 view .LVU567
 1971 00e6 2069     		ldr	r0, [r4, #16]
 1972 00e8 0023     		movs	r3, #0
 1973 00ea 1A46     		mov	r2, r3
 1974 00ec 1946     		mov	r1, r3
 1975 00ee 0E4E     		ldr	r6, .L148+44
 1976 00f0 B047     		blx	r6
 1977              	.LVL167:
 1978              		.loc 1 571 4 discriminator 1 view .LVU568
 1979 00f2 0023     		movs	r3, #0
 1980 00f4 2361     		str	r3, [r4, #16]
 1981              	.L141:
 1982              		.loc 1 571 4 discriminator 3 view .LVU569
 1983 00f6 0D4B     		ldr	r3, .L148+48
 1984 00f8 9847     		blx	r3
 1985              	.LVL168:
 1986              		.loc 1 571 38 discriminator 3 view .LVU570
 1987              		.loc 1 580 27 discriminator 3 view .LVU571
 1988              		.loc 1 581 50 discriminator 3 view .LVU572
 1989              		.loc 1 584 2 discriminator 3 view .LVU573
 1990              		.loc 1 584 9 is_stmt 0 discriminator 3 view .LVU574
 1991 00fa E6E7     		b	.L127
 1992              	.L149:
 1993              		.align	2
 1994              	.L148:
 1995 00fc 00000000 		.word	vTaskSetTimeOutState
 1996 0100 00000000 		.word	vPortEnterCritical
 1997 0104 00000000 		.word	xStreamBufferSpacesAvailable
 1998 0108 00000000 		.word	xTaskNotifyStateClear
 1999 010c 00000000 		.word	xTaskGetCurrentTaskHandle
 2000 0110 00000000 		.word	vPortExitCritical
 2001 0114 00000000 		.word	xTaskNotifyWait
 2002 0118 00000000 		.word	xTaskCheckForTimeOut
 2003 011c 00000000 		.word	prvWriteMessageToBuffer
 2004 0120 00000000 		.word	prvBytesInBuffer
 2005 0124 00000000 		.word	vTaskSuspendAll
 2006 0128 00000000 		.word	xTaskGenericNotify
 2007 012c 00000000 		.word	xTaskResumeAll
 2008              		.cfi_endproc
 2009              	.LFE11:
 2011              		.section	.text.xStreamBufferSendFromISR,"ax",%progbits
 2012              		.align	1
 2013              		.global	xStreamBufferSendFromISR
 2014              		.syntax unified
 2015              		.thumb
 2016              		.thumb_func
 2017              		.fpu softvfp
 2019              	xStreamBufferSendFromISR:
 2020              	.LVL169:
 2021              	.LFB12:
 2022              		.loc 1 592 1 is_stmt 1 view -0
ARM GAS  C:\Users\Test\AppData\Local\Temp\ccxnBkka.s 			page 36


 2023              		.cfi_startproc
 2024              		@ args = 0, pretend = 0, frame = 0
 2025              		@ frame_needed = 0, uses_anonymous_args = 0
 2026              		.loc 1 593 1 view .LVU576
 2027              		.loc 1 594 1 view .LVU577
 2028              		.loc 1 595 1 view .LVU578
 2029              		.loc 1 597 2 view .LVU579
 2030 0000 F1B1     		cbz	r1, .L161
 2031              		.loc 1 592 1 is_stmt 0 discriminator 2 view .LVU580
 2032 0002 2DE9F041 		push	{r4, r5, r6, r7, r8, lr}
 2033              	.LCFI30:
 2034              		.cfi_def_cfa_offset 24
 2035              		.cfi_offset 4, -24
 2036              		.cfi_offset 5, -20
 2037              		.cfi_offset 6, -16
 2038              		.cfi_offset 7, -12
 2039              		.cfi_offset 8, -8
 2040              		.cfi_offset 14, -4
 2041 0006 82B0     		sub	sp, sp, #8
 2042              	.LCFI31:
 2043              		.cfi_def_cfa_offset 32
 2044 0008 0446     		mov	r4, r0
 2045 000a 1546     		mov	r5, r2
 2046 000c 1E46     		mov	r6, r3
 2047 000e 0F46     		mov	r7, r1
 2048              		.loc 1 597 26 is_stmt 1 discriminator 2 view .LVU581
 2049              		.loc 1 598 2 discriminator 2 view .LVU582
 2050 0010 F8B1     		cbz	r0, .L162
 2051              		.loc 1 598 32 discriminator 2 view .LVU583
 2052              		.loc 1 604 2 discriminator 2 view .LVU584
 2053              		.loc 1 604 22 is_stmt 0 discriminator 2 view .LVU585
 2054 0012 037F     		ldrb	r3, [r0, #28]	@ zero_extendqisi2
 2055              	.LVL170:
 2056              		.loc 1 604 4 discriminator 2 view .LVU586
 2057 0014 13F0010F 		tst	r3, #1
 2058 0018 24D0     		beq	.L158
 2059              		.loc 1 606 3 is_stmt 1 view .LVU587
 2060              		.loc 1 606 18 is_stmt 0 view .LVU588
 2061 001a 02F10408 		add	r8, r2, #4
 2062              	.LVL171:
 2063              	.L155:
 2064              		.loc 1 610 27 is_stmt 1 view .LVU589
 2065              		.loc 1 613 2 view .LVU590
 2066              		.loc 1 613 11 is_stmt 0 view .LVU591
 2067 001e 2046     		mov	r0, r4
 2068              	.LVL172:
 2069              		.loc 1 613 11 view .LVU592
 2070 0020 204B     		ldr	r3, .L164
 2071 0022 9847     		blx	r3
 2072              	.LVL173:
 2073              		.loc 1 613 11 view .LVU593
 2074 0024 0346     		mov	r3, r0
 2075              	.LVL174:
 2076              		.loc 1 614 2 is_stmt 1 view .LVU594
 2077              		.loc 1 614 12 is_stmt 0 view .LVU595
 2078 0026 CDF80080 		str	r8, [sp]
 2079 002a 2A46     		mov	r2, r5
ARM GAS  C:\Users\Test\AppData\Local\Temp\ccxnBkka.s 			page 37


 2080 002c 3946     		mov	r1, r7
 2081 002e 2046     		mov	r0, r4
 2082              	.LVL175:
 2083              		.loc 1 614 12 view .LVU596
 2084 0030 1D4D     		ldr	r5, .L164+4
 2085              	.LVL176:
 2086              		.loc 1 614 12 view .LVU597
 2087 0032 A847     		blx	r5
 2088              	.LVL177:
 2089              		.loc 1 616 2 is_stmt 1 view .LVU598
 2090              		.loc 1 616 4 is_stmt 0 view .LVU599
 2091 0034 0546     		mov	r5, r0
 2092 0036 B8B9     		cbnz	r0, .L163
 2093              	.LVL178:
 2094              	.L150:
 2095              		.loc 1 636 1 view .LVU600
 2096 0038 2846     		mov	r0, r5
 2097 003a 02B0     		add	sp, sp, #8
 2098              	.LCFI32:
 2099              		.cfi_def_cfa_offset 24
 2100              		@ sp needed
 2101 003c BDE8F081 		pop	{r4, r5, r6, r7, r8, pc}
 2102              	.LVL179:
 2103              	.L161:
 2104              	.LCFI33:
 2105              		.cfi_def_cfa_offset 0
 2106              		.cfi_restore 4
 2107              		.cfi_restore 5
 2108              		.cfi_restore 6
 2109              		.cfi_restore 7
 2110              		.cfi_restore 8
 2111              		.cfi_restore 14
 2112              		.loc 1 597 2 is_stmt 1 view .LVU601
 2113              	.LBB134:
 2114              	.LBI134:
 2115              		.loc 2 191 30 view .LVU602
 2116              	.LBB135:
 2117              		.loc 2 193 1 view .LVU603
 2118              		.loc 2 195 2 view .LVU604
 2119              		.syntax unified
 2120              	@ 195 "Middlewares/Third_Party/FreeRTOS/Source/portable/GCC/ARM_CM3/portmacro.h" 1
 2121 0040 4FF05003 			mov r3, #80												
 2122 0044 83F31188 		msr basepri, r3											
 2123 0048 BFF36F8F 		isb														
 2124 004c BFF34F8F 		dsb														
 2125              	
 2126              	@ 0 "" 2
 2127              	.LVL180:
 2128              		.thumb
 2129              		.syntax unified
 2130              	.L152:
 2131              		.loc 2 195 2 is_stmt 0 view .LVU605
 2132              	.LBE135:
 2133              	.LBE134:
 2134              		.loc 1 597 2 is_stmt 1 discriminator 1 view .LVU606
 2135              		.loc 1 597 2 discriminator 1 view .LVU607
 2136              		.loc 1 597 2 discriminator 1 view .LVU608
ARM GAS  C:\Users\Test\AppData\Local\Temp\ccxnBkka.s 			page 38


 2137 0050 FEE7     		b	.L152
 2138              	.LVL181:
 2139              	.L162:
 2140              	.LCFI34:
 2141              		.cfi_def_cfa_offset 32
 2142              		.cfi_offset 4, -24
 2143              		.cfi_offset 5, -20
 2144              		.cfi_offset 6, -16
 2145              		.cfi_offset 7, -12
 2146              		.cfi_offset 8, -8
 2147              		.cfi_offset 14, -4
 2148              		.loc 1 598 2 view .LVU609
 2149              	.LBB136:
 2150              	.LBI136:
 2151              		.loc 2 191 30 view .LVU610
 2152              	.LBB137:
 2153              		.loc 2 193 1 view .LVU611
 2154              		.loc 2 195 2 view .LVU612
 2155              		.syntax unified
 2156              	@ 195 "Middlewares/Third_Party/FreeRTOS/Source/portable/GCC/ARM_CM3/portmacro.h" 1
 2157 0052 4FF05003 			mov r3, #80												
 2158 0056 83F31188 		msr basepri, r3											
 2159 005a BFF36F8F 		isb														
 2160 005e BFF34F8F 		dsb														
 2161              	
 2162              	@ 0 "" 2
 2163              	.LVL182:
 2164              		.thumb
 2165              		.syntax unified
 2166              	.L154:
 2167              		.loc 2 195 2 is_stmt 0 view .LVU613
 2168              	.LBE137:
 2169              	.LBE136:
 2170              		.loc 1 598 2 is_stmt 1 discriminator 2 view .LVU614
 2171              		.loc 1 598 2 discriminator 2 view .LVU615
 2172              		.loc 1 598 2 discriminator 2 view .LVU616
 2173 0062 FEE7     		b	.L154
 2174              	.L158:
 2175              		.loc 1 595 8 is_stmt 0 view .LVU617
 2176 0064 9046     		mov	r8, r2
 2177 0066 DAE7     		b	.L155
 2178              	.LVL183:
 2179              	.L163:
 2180              		.loc 1 619 3 is_stmt 1 view .LVU618
 2181              		.loc 1 619 7 is_stmt 0 view .LVU619
 2182 0068 2046     		mov	r0, r4
 2183              	.LVL184:
 2184              		.loc 1 619 7 view .LVU620
 2185 006a 104B     		ldr	r3, .L164+8
 2186 006c 9847     		blx	r3
 2187              	.LVL185:
 2188              		.loc 1 619 59 view .LVU621
 2189 006e E368     		ldr	r3, [r4, #12]
 2190              		.loc 1 619 5 view .LVU622
 2191 0070 9842     		cmp	r0, r3
 2192 0072 E1D3     		bcc	.L150
 2193              	.LBB138:
ARM GAS  C:\Users\Test\AppData\Local\Temp\ccxnBkka.s 			page 39


 2194              		.loc 1 621 4 is_stmt 1 view .LVU623
 2195              		.loc 1 621 4 view .LVU624
 2196              	.LBB139:
 2197              	.LBI139:
 2198              		.loc 2 207 34 view .LVU625
 2199              	.LBB140:
 2200              		.loc 2 209 1 view .LVU626
 2201              		.loc 2 211 2 view .LVU627
 2202              		.syntax unified
 2203              	@ 211 "Middlewares/Third_Party/FreeRTOS/Source/portable/GCC/ARM_CM3/portmacro.h" 1
 2204 0074 EFF31187 			mrs r7, basepri											
 2205 0078 4FF05003 		mov r3, #80												
 2206 007c 83F31188 		msr basepri, r3											
 2207 0080 BFF36F8F 		isb														
 2208 0084 BFF34F8F 		dsb														
 2209              	
 2210              	@ 0 "" 2
 2211              	.LVL186:
 2212              		.loc 2 223 2 view .LVU628
 2213              		.loc 2 223 2 is_stmt 0 view .LVU629
 2214              		.thumb
 2215              		.syntax unified
 2216              	.LBE140:
 2217              	.LBE139:
 2218              		.loc 1 621 4 is_stmt 1 view .LVU630
 2219 0088 2369     		ldr	r3, [r4, #16]
 2220 008a 43B1     		cbz	r3, .L157
 2221              		.loc 1 621 4 discriminator 1 view .LVU631
 2222 008c 2069     		ldr	r0, [r4, #16]
 2223 008e 0096     		str	r6, [sp]
 2224 0090 0023     		movs	r3, #0
 2225 0092 1A46     		mov	r2, r3
 2226 0094 1946     		mov	r1, r3
 2227 0096 064E     		ldr	r6, .L164+12
 2228              	.LVL187:
 2229              		.loc 1 621 4 is_stmt 0 discriminator 1 view .LVU632
 2230 0098 B047     		blx	r6
 2231              	.LVL188:
 2232              		.loc 1 621 4 is_stmt 1 discriminator 1 view .LVU633
 2233 009a 0023     		movs	r3, #0
 2234 009c 2361     		str	r3, [r4, #16]
 2235              	.L157:
 2236              		.loc 1 621 4 discriminator 3 view .LVU634
 2237              	.LVL189:
 2238              	.LBB141:
 2239              	.LBI141:
 2240              		.loc 2 227 30 discriminator 3 view .LVU635
 2241              	.LBB142:
 2242              		.loc 2 229 2 discriminator 3 view .LVU636
 2243              		.syntax unified
 2244              	@ 229 "Middlewares/Third_Party/FreeRTOS/Source/portable/GCC/ARM_CM3/portmacro.h" 1
 2245 009e 87F31188 			msr basepri, r7	
 2246              	@ 0 "" 2
 2247              	.LVL190:
 2248              		.loc 2 229 2 is_stmt 0 discriminator 3 view .LVU637
 2249              		.thumb
 2250              		.syntax unified
ARM GAS  C:\Users\Test\AppData\Local\Temp\ccxnBkka.s 			page 40


 2251              	.LBE142:
 2252              	.LBE141:
 2253              	.LBE138:
 2254              		.loc 1 630 27 is_stmt 1 discriminator 3 view .LVU638
 2255              		.loc 1 633 60 discriminator 3 view .LVU639
 2256              		.loc 1 635 2 discriminator 3 view .LVU640
 2257              		.loc 1 635 9 is_stmt 0 discriminator 3 view .LVU641
 2258 00a2 C9E7     		b	.L150
 2259              	.L165:
 2260              		.align	2
 2261              	.L164:
 2262 00a4 00000000 		.word	xStreamBufferSpacesAvailable
 2263 00a8 00000000 		.word	prvWriteMessageToBuffer
 2264 00ac 00000000 		.word	prvBytesInBuffer
 2265 00b0 00000000 		.word	xTaskGenericNotifyFromISR
 2266              		.cfi_endproc
 2267              	.LFE12:
 2269              		.section	.text.xStreamBufferReceive,"ax",%progbits
 2270              		.align	1
 2271              		.global	xStreamBufferReceive
 2272              		.syntax unified
 2273              		.thumb
 2274              		.thumb_func
 2275              		.fpu softvfp
 2277              	xStreamBufferReceive:
 2278              	.LVL191:
 2279              	.LFB14:
 2280              		.loc 1 695 1 is_stmt 1 view -0
 2281              		.cfi_startproc
 2282              		@ args = 0, pretend = 0, frame = 0
 2283              		@ frame_needed = 0, uses_anonymous_args = 0
 2284              		.loc 1 696 1 view .LVU643
 2285              		.loc 1 697 1 view .LVU644
 2286              		.loc 1 699 2 view .LVU645
 2287 0000 29B3     		cbz	r1, .L183
 2288              		.loc 1 695 1 is_stmt 0 discriminator 2 view .LVU646
 2289 0002 2DE9F043 		push	{r4, r5, r6, r7, r8, r9, lr}
 2290              	.LCFI35:
 2291              		.cfi_def_cfa_offset 28
 2292              		.cfi_offset 4, -28
 2293              		.cfi_offset 5, -24
 2294              		.cfi_offset 6, -20
 2295              		.cfi_offset 7, -16
 2296              		.cfi_offset 8, -12
 2297              		.cfi_offset 9, -8
 2298              		.cfi_offset 14, -4
 2299 0006 83B0     		sub	sp, sp, #12
 2300              	.LCFI36:
 2301              		.cfi_def_cfa_offset 40
 2302 0008 0446     		mov	r4, r0
 2303 000a 1746     		mov	r7, r2
 2304 000c 1E46     		mov	r6, r3
 2305 000e 8846     		mov	r8, r1
 2306              		.loc 1 699 26 is_stmt 1 discriminator 2 view .LVU647
 2307              		.loc 1 700 2 discriminator 2 view .LVU648
 2308 0010 30B3     		cbz	r0, .L184
 2309              		.loc 1 700 32 discriminator 2 view .LVU649
ARM GAS  C:\Users\Test\AppData\Local\Temp\ccxnBkka.s 			page 41


 2310              		.loc 1 707 2 discriminator 2 view .LVU650
 2311              		.loc 1 707 22 is_stmt 0 discriminator 2 view .LVU651
 2312 0012 037F     		ldrb	r3, [r0, #28]	@ zero_extendqisi2
 2313              	.LVL192:
 2314              		.loc 1 707 4 discriminator 2 view .LVU652
 2315 0014 13F0010F 		tst	r3, #1
 2316 0018 2BD0     		beq	.L179
 2317              		.loc 1 709 30 view .LVU653
 2318 001a 4FF00409 		mov	r9, #4
 2319              	.L171:
 2320              	.LVL193:
 2321              		.loc 1 716 2 is_stmt 1 view .LVU654
 2322              		.loc 1 716 4 is_stmt 0 view .LVU655
 2323 001e 002E     		cmp	r6, #0
 2324 0020 3FD0     		beq	.L172
 2325              		.loc 1 720 3 is_stmt 1 view .LVU656
 2326 0022 324B     		ldr	r3, .L186
 2327 0024 9847     		blx	r3
 2328              	.LVL194:
 2329              		.loc 1 722 4 view .LVU657
 2330              		.loc 1 722 22 is_stmt 0 view .LVU658
 2331 0026 2046     		mov	r0, r4
 2332 0028 314B     		ldr	r3, .L186+4
 2333 002a 9847     		blx	r3
 2334              	.LVL195:
 2335 002c 0546     		mov	r5, r0
 2336              	.LVL196:
 2337              		.loc 1 729 4 is_stmt 1 view .LVU659
 2338              		.loc 1 729 6 is_stmt 0 view .LVU660
 2339 002e 8145     		cmp	r9, r0
 2340 0030 25D3     		bcc	.L173
 2341              		.loc 1 732 5 is_stmt 1 view .LVU661
 2342              		.loc 1 732 14 is_stmt 0 view .LVU662
 2343 0032 0020     		movs	r0, #0
 2344              	.LVL197:
 2345              		.loc 1 732 14 view .LVU663
 2346 0034 2F4B     		ldr	r3, .L186+8
 2347 0036 9847     		blx	r3
 2348              	.LVL198:
 2349              		.loc 1 735 5 is_stmt 1 view .LVU664
 2350 0038 2369     		ldr	r3, [r4, #16]
 2351 003a EBB1     		cbz	r3, .L174
 2352              		.loc 1 735 5 view .LVU665
 2353              	.LBB143:
 2354              	.LBI143:
 2355              		.loc 2 191 30 view .LVU666
 2356              	.LBB144:
 2357              		.loc 2 193 1 view .LVU667
 2358              		.loc 2 195 2 view .LVU668
 2359              		.syntax unified
 2360              	@ 195 "Middlewares/Third_Party/FreeRTOS/Source/portable/GCC/ARM_CM3/portmacro.h" 1
 2361 003c 4FF05003 			mov r3, #80												
 2362 0040 83F31188 		msr basepri, r3											
 2363 0044 BFF36F8F 		isb														
 2364 0048 BFF34F8F 		dsb														
 2365              	
 2366              	@ 0 "" 2
ARM GAS  C:\Users\Test\AppData\Local\Temp\ccxnBkka.s 			page 42


 2367              	.LVL199:
 2368              		.thumb
 2369              		.syntax unified
 2370              	.L175:
 2371              		.loc 2 195 2 is_stmt 0 view .LVU669
 2372              	.LBE144:
 2373              	.LBE143:
 2374              		.loc 1 735 5 is_stmt 1 discriminator 3 view .LVU670
 2375              		.loc 1 735 5 discriminator 3 view .LVU671
 2376              		.loc 1 735 5 discriminator 3 view .LVU672
 2377 004c FEE7     		b	.L175
 2378              	.LVL200:
 2379              	.L183:
 2380              	.LCFI37:
 2381              		.cfi_def_cfa_offset 0
 2382              		.cfi_restore 4
 2383              		.cfi_restore 5
 2384              		.cfi_restore 6
 2385              		.cfi_restore 7
 2386              		.cfi_restore 8
 2387              		.cfi_restore 9
 2388              		.cfi_restore 14
 2389              		.loc 1 699 2 view .LVU673
 2390              	.LBB145:
 2391              	.LBI145:
 2392              		.loc 2 191 30 view .LVU674
 2393              	.LBB146:
 2394              		.loc 2 193 1 view .LVU675
 2395              		.loc 2 195 2 view .LVU676
 2396              		.syntax unified
 2397              	@ 195 "Middlewares/Third_Party/FreeRTOS/Source/portable/GCC/ARM_CM3/portmacro.h" 1
 2398 004e 4FF05003 			mov r3, #80												
 2399 0052 83F31188 		msr basepri, r3											
 2400 0056 BFF36F8F 		isb														
 2401 005a BFF34F8F 		dsb														
 2402              	
 2403              	@ 0 "" 2
 2404              	.LVL201:
 2405              		.thumb
 2406              		.syntax unified
 2407              	.L168:
 2408              		.loc 2 195 2 is_stmt 0 view .LVU677
 2409              	.LBE146:
 2410              	.LBE145:
 2411              		.loc 1 699 2 is_stmt 1 discriminator 1 view .LVU678
 2412              		.loc 1 699 2 discriminator 1 view .LVU679
 2413              		.loc 1 699 2 discriminator 1 view .LVU680
 2414 005e FEE7     		b	.L168
 2415              	.LVL202:
 2416              	.L184:
 2417              	.LCFI38:
 2418              		.cfi_def_cfa_offset 40
 2419              		.cfi_offset 4, -28
 2420              		.cfi_offset 5, -24
 2421              		.cfi_offset 6, -20
 2422              		.cfi_offset 7, -16
 2423              		.cfi_offset 8, -12
ARM GAS  C:\Users\Test\AppData\Local\Temp\ccxnBkka.s 			page 43


 2424              		.cfi_offset 9, -8
 2425              		.cfi_offset 14, -4
 2426              		.loc 1 700 2 view .LVU681
 2427              	.LBB147:
 2428              	.LBI147:
 2429              		.loc 2 191 30 view .LVU682
 2430              	.LBB148:
 2431              		.loc 2 193 1 view .LVU683
 2432              		.loc 2 195 2 view .LVU684
 2433              		.syntax unified
 2434              	@ 195 "Middlewares/Third_Party/FreeRTOS/Source/portable/GCC/ARM_CM3/portmacro.h" 1
 2435 0060 4FF05003 			mov r3, #80												
 2436 0064 83F31188 		msr basepri, r3											
 2437 0068 BFF36F8F 		isb														
 2438 006c BFF34F8F 		dsb														
 2439              	
 2440              	@ 0 "" 2
 2441              	.LVL203:
 2442              		.thumb
 2443              		.syntax unified
 2444              	.L170:
 2445              		.loc 2 195 2 is_stmt 0 view .LVU685
 2446              	.LBE148:
 2447              	.LBE147:
 2448              		.loc 1 700 2 is_stmt 1 discriminator 2 view .LVU686
 2449              		.loc 1 700 2 discriminator 2 view .LVU687
 2450              		.loc 1 700 2 discriminator 2 view .LVU688
 2451 0070 FEE7     		b	.L170
 2452              	.L179:
 2453              		.loc 1 713 30 is_stmt 0 view .LVU689
 2454 0072 4FF00009 		mov	r9, #0
 2455 0076 D2E7     		b	.L171
 2456              	.LVL204:
 2457              	.L174:
 2458              		.loc 1 735 66 is_stmt 1 discriminator 2 view .LVU690
 2459              		.loc 1 736 5 discriminator 2 view .LVU691
 2460              		.loc 1 736 45 is_stmt 0 discriminator 2 view .LVU692
 2461 0078 1F4B     		ldr	r3, .L186+12
 2462 007a 9847     		blx	r3
 2463              	.LVL205:
 2464              		.loc 1 736 43 discriminator 2 view .LVU693
 2465 007c 2061     		str	r0, [r4, #16]
 2466              	.L173:
 2467              		.loc 1 740 29 is_stmt 1 view .LVU694
 2468              		.loc 1 743 3 view .LVU695
 2469 007e 1F4B     		ldr	r3, .L186+16
 2470 0080 9847     		blx	r3
 2471              	.LVL206:
 2472              		.loc 1 745 3 view .LVU696
 2473              		.loc 1 745 5 is_stmt 0 view .LVU697
 2474 0082 A945     		cmp	r9, r5
 2475 0084 11D3     		bcc	.L176
 2476              		.loc 1 748 59 is_stmt 1 view .LVU698
 2477              		.loc 1 749 4 view .LVU699
 2478              		.loc 1 749 13 is_stmt 0 view .LVU700
 2479 0086 3346     		mov	r3, r6
 2480 0088 0022     		movs	r2, #0
ARM GAS  C:\Users\Test\AppData\Local\Temp\ccxnBkka.s 			page 44


 2481 008a 4FF0FF31 		mov	r1, #-1
 2482 008e 1046     		mov	r0, r2
 2483 0090 1B4D     		ldr	r5, .L186+20
 2484              	.LVL207:
 2485              		.loc 1 749 13 view .LVU701
 2486 0092 A847     		blx	r5
 2487              	.LVL208:
 2488              		.loc 1 750 4 is_stmt 1 view .LVU702
 2489              		.loc 1 750 42 is_stmt 0 view .LVU703
 2490 0094 0023     		movs	r3, #0
 2491 0096 2361     		str	r3, [r4, #16]
 2492              		.loc 1 753 4 is_stmt 1 view .LVU704
 2493              		.loc 1 753 22 is_stmt 0 view .LVU705
 2494 0098 2046     		mov	r0, r4
 2495 009a 154B     		ldr	r3, .L186+4
 2496 009c 9847     		blx	r3
 2497              	.LVL209:
 2498 009e 0546     		mov	r5, r0
 2499              	.LVL210:
 2500              		.loc 1 753 22 view .LVU706
 2501 00a0 03E0     		b	.L176
 2502              	.LVL211:
 2503              	.L172:
 2504              		.loc 1 762 3 is_stmt 1 view .LVU707
 2505              		.loc 1 762 21 is_stmt 0 view .LVU708
 2506 00a2 2046     		mov	r0, r4
 2507              	.LVL212:
 2508              		.loc 1 762 21 view .LVU709
 2509 00a4 124B     		ldr	r3, .L186+4
 2510 00a6 9847     		blx	r3
 2511              	.LVL213:
 2512              		.loc 1 762 21 view .LVU710
 2513 00a8 0546     		mov	r5, r0
 2514              	.LVL214:
 2515              	.L176:
 2516              		.loc 1 770 2 is_stmt 1 view .LVU711
 2517              		.loc 1 770 4 is_stmt 0 view .LVU712
 2518 00aa 4D45     		cmp	r5, r9
 2519 00ac 04D8     		bhi	.L185
 2520              		.loc 1 697 8 view .LVU713
 2521 00ae 0025     		movs	r5, #0
 2522              	.LVL215:
 2523              		.loc 1 787 53 is_stmt 1 view .LVU714
 2524              		.loc 1 788 27 view .LVU715
 2525              		.loc 1 791 2 view .LVU716
 2526              	.L166:
 2527              		.loc 1 792 1 is_stmt 0 view .LVU717
 2528 00b0 2846     		mov	r0, r5
 2529 00b2 03B0     		add	sp, sp, #12
 2530              	.LCFI39:
 2531              		.cfi_remember_state
 2532              		.cfi_def_cfa_offset 28
 2533              		@ sp needed
 2534 00b4 BDE8F083 		pop	{r4, r5, r6, r7, r8, r9, pc}
 2535              	.LVL216:
 2536              	.L185:
 2537              	.LCFI40:
ARM GAS  C:\Users\Test\AppData\Local\Temp\ccxnBkka.s 			page 45


 2538              		.cfi_restore_state
 2539              		.loc 1 772 3 is_stmt 1 view .LVU718
 2540              		.loc 1 772 21 is_stmt 0 view .LVU719
 2541 00b8 CDF80090 		str	r9, [sp]
 2542 00bc 2B46     		mov	r3, r5
 2543 00be 3A46     		mov	r2, r7
 2544 00c0 4146     		mov	r1, r8
 2545 00c2 2046     		mov	r0, r4
 2546 00c4 0F4D     		ldr	r5, .L186+24
 2547              	.LVL217:
 2548              		.loc 1 772 21 view .LVU720
 2549 00c6 A847     		blx	r5
 2550              	.LVL218:
 2551              		.loc 1 775 3 is_stmt 1 view .LVU721
 2552              		.loc 1 775 5 is_stmt 0 view .LVU722
 2553 00c8 0546     		mov	r5, r0
 2554 00ca 0028     		cmp	r0, #0
 2555 00cc F0D0     		beq	.L166
 2556              		.loc 1 777 64 is_stmt 1 view .LVU723
 2557              		.loc 1 778 4 view .LVU724
 2558 00ce 0E4B     		ldr	r3, .L186+28
 2559 00d0 9847     		blx	r3
 2560              	.LVL219:
 2561              		.loc 1 778 4 view .LVU725
 2562 00d2 6369     		ldr	r3, [r4, #20]
 2563 00d4 3BB1     		cbz	r3, .L178
 2564              		.loc 1 778 4 discriminator 1 view .LVU726
 2565 00d6 6069     		ldr	r0, [r4, #20]
 2566 00d8 0023     		movs	r3, #0
 2567 00da 1A46     		mov	r2, r3
 2568 00dc 1946     		mov	r1, r3
 2569 00de 0B4E     		ldr	r6, .L186+32
 2570              	.LVL220:
 2571              		.loc 1 778 4 is_stmt 0 discriminator 1 view .LVU727
 2572 00e0 B047     		blx	r6
 2573              	.LVL221:
 2574              		.loc 1 778 4 is_stmt 1 discriminator 1 view .LVU728
 2575 00e2 0023     		movs	r3, #0
 2576 00e4 6361     		str	r3, [r4, #20]
 2577              	.L178:
 2578              		.loc 1 778 4 discriminator 3 view .LVU729
 2579 00e6 0A4B     		ldr	r3, .L186+36
 2580 00e8 9847     		blx	r3
 2581              	.LVL222:
 2582              		.loc 1 778 41 discriminator 3 view .LVU730
 2583 00ea E1E7     		b	.L166
 2584              	.L187:
 2585              		.align	2
 2586              	.L186:
 2587 00ec 00000000 		.word	vPortEnterCritical
 2588 00f0 00000000 		.word	prvBytesInBuffer
 2589 00f4 00000000 		.word	xTaskNotifyStateClear
 2590 00f8 00000000 		.word	xTaskGetCurrentTaskHandle
 2591 00fc 00000000 		.word	vPortExitCritical
 2592 0100 00000000 		.word	xTaskNotifyWait
 2593 0104 00000000 		.word	prvReadMessageFromBuffer
 2594 0108 00000000 		.word	vTaskSuspendAll
ARM GAS  C:\Users\Test\AppData\Local\Temp\ccxnBkka.s 			page 46


 2595 010c 00000000 		.word	xTaskGenericNotify
 2596 0110 00000000 		.word	xTaskResumeAll
 2597              		.cfi_endproc
 2598              	.LFE14:
 2600              		.section	.text.xStreamBufferReceiveFromISR,"ax",%progbits
 2601              		.align	1
 2602              		.global	xStreamBufferReceiveFromISR
 2603              		.syntax unified
 2604              		.thumb
 2605              		.thumb_func
 2606              		.fpu softvfp
 2608              	xStreamBufferReceiveFromISR:
 2609              	.LVL223:
 2610              	.LFB15:
 2611              		.loc 1 799 1 view -0
 2612              		.cfi_startproc
 2613              		@ args = 0, pretend = 0, frame = 0
 2614              		@ frame_needed = 0, uses_anonymous_args = 0
 2615              		.loc 1 800 1 view .LVU732
 2616              		.loc 1 801 1 view .LVU733
 2617              		.loc 1 803 2 view .LVU734
 2618 0000 B9B1     		cbz	r1, .L200
 2619              		.loc 1 799 1 is_stmt 0 discriminator 2 view .LVU735
 2620 0002 2DE9F041 		push	{r4, r5, r6, r7, r8, lr}
 2621              	.LCFI41:
 2622              		.cfi_def_cfa_offset 24
 2623              		.cfi_offset 4, -24
 2624              		.cfi_offset 5, -20
 2625              		.cfi_offset 6, -16
 2626              		.cfi_offset 7, -12
 2627              		.cfi_offset 8, -8
 2628              		.cfi_offset 14, -4
 2629 0006 82B0     		sub	sp, sp, #8
 2630              	.LCFI42:
 2631              		.cfi_def_cfa_offset 32
 2632 0008 0446     		mov	r4, r0
 2633 000a 1646     		mov	r6, r2
 2634 000c 1D46     		mov	r5, r3
 2635 000e 0F46     		mov	r7, r1
 2636              		.loc 1 803 26 is_stmt 1 discriminator 2 view .LVU736
 2637              		.loc 1 804 2 discriminator 2 view .LVU737
 2638 0010 C0B1     		cbz	r0, .L201
 2639              		.loc 1 804 32 discriminator 2 view .LVU738
 2640              		.loc 1 811 2 discriminator 2 view .LVU739
 2641              		.loc 1 811 22 is_stmt 0 discriminator 2 view .LVU740
 2642 0012 037F     		ldrb	r3, [r0, #28]	@ zero_extendqisi2
 2643              	.LVL224:
 2644              		.loc 1 811 4 discriminator 2 view .LVU741
 2645 0014 13F0010F 		tst	r3, #1
 2646 0018 1DD0     		beq	.L196
 2647              		.loc 1 813 30 view .LVU742
 2648 001a 4FF00408 		mov	r8, #4
 2649              	.L193:
 2650              	.LVL225:
 2651              		.loc 1 820 2 is_stmt 1 view .LVU743
 2652              		.loc 1 820 20 is_stmt 0 view .LVU744
 2653 001e 2046     		mov	r0, r4
ARM GAS  C:\Users\Test\AppData\Local\Temp\ccxnBkka.s 			page 47


 2654              	.LVL226:
 2655              		.loc 1 820 20 view .LVU745
 2656 0020 204B     		ldr	r3, .L203
 2657 0022 9847     		blx	r3
 2658              	.LVL227:
 2659              		.loc 1 827 2 is_stmt 1 view .LVU746
 2660              		.loc 1 827 4 is_stmt 0 view .LVU747
 2661 0024 8045     		cmp	r8, r0
 2662 0026 19D3     		bcc	.L202
 2663              		.loc 1 801 8 view .LVU748
 2664 0028 0026     		movs	r6, #0
 2665              	.LVL228:
 2666              		.loc 1 843 27 is_stmt 1 view .LVU749
 2667              		.loc 1 846 71 view .LVU750
 2668              		.loc 1 848 2 view .LVU751
 2669              	.L188:
 2670              		.loc 1 849 1 is_stmt 0 view .LVU752
 2671 002a 3046     		mov	r0, r6
 2672 002c 02B0     		add	sp, sp, #8
 2673              	.LCFI43:
 2674              		.cfi_def_cfa_offset 24
 2675              		@ sp needed
 2676 002e BDE8F081 		pop	{r4, r5, r6, r7, r8, pc}
 2677              	.LVL229:
 2678              	.L200:
 2679              	.LCFI44:
 2680              		.cfi_def_cfa_offset 0
 2681              		.cfi_restore 4
 2682              		.cfi_restore 5
 2683              		.cfi_restore 6
 2684              		.cfi_restore 7
 2685              		.cfi_restore 8
 2686              		.cfi_restore 14
 2687              		.loc 1 803 2 is_stmt 1 view .LVU753
 2688              	.LBB149:
 2689              	.LBI149:
 2690              		.loc 2 191 30 view .LVU754
 2691              	.LBB150:
 2692              		.loc 2 193 1 view .LVU755
 2693              		.loc 2 195 2 view .LVU756
 2694              		.syntax unified
 2695              	@ 195 "Middlewares/Third_Party/FreeRTOS/Source/portable/GCC/ARM_CM3/portmacro.h" 1
 2696 0032 4FF05003 			mov r3, #80												
 2697 0036 83F31188 		msr basepri, r3											
 2698 003a BFF36F8F 		isb														
 2699 003e BFF34F8F 		dsb														
 2700              	
 2701              	@ 0 "" 2
 2702              	.LVL230:
 2703              		.thumb
 2704              		.syntax unified
 2705              	.L190:
 2706              		.loc 2 195 2 is_stmt 0 view .LVU757
 2707              	.LBE150:
 2708              	.LBE149:
 2709              		.loc 1 803 2 is_stmt 1 discriminator 1 view .LVU758
 2710              		.loc 1 803 2 discriminator 1 view .LVU759
ARM GAS  C:\Users\Test\AppData\Local\Temp\ccxnBkka.s 			page 48


 2711              		.loc 1 803 2 discriminator 1 view .LVU760
 2712 0042 FEE7     		b	.L190
 2713              	.LVL231:
 2714              	.L201:
 2715              	.LCFI45:
 2716              		.cfi_def_cfa_offset 32
 2717              		.cfi_offset 4, -24
 2718              		.cfi_offset 5, -20
 2719              		.cfi_offset 6, -16
 2720              		.cfi_offset 7, -12
 2721              		.cfi_offset 8, -8
 2722              		.cfi_offset 14, -4
 2723              		.loc 1 804 2 view .LVU761
 2724              	.LBB151:
 2725              	.LBI151:
 2726              		.loc 2 191 30 view .LVU762
 2727              	.LBB152:
 2728              		.loc 2 193 1 view .LVU763
 2729              		.loc 2 195 2 view .LVU764
 2730              		.syntax unified
 2731              	@ 195 "Middlewares/Third_Party/FreeRTOS/Source/portable/GCC/ARM_CM3/portmacro.h" 1
 2732 0044 4FF05003 			mov r3, #80												
 2733 0048 83F31188 		msr basepri, r3											
 2734 004c BFF36F8F 		isb														
 2735 0050 BFF34F8F 		dsb														
 2736              	
 2737              	@ 0 "" 2
 2738              	.LVL232:
 2739              		.thumb
 2740              		.syntax unified
 2741              	.L192:
 2742              		.loc 2 195 2 is_stmt 0 view .LVU765
 2743              	.LBE152:
 2744              	.LBE151:
 2745              		.loc 1 804 2 is_stmt 1 discriminator 2 view .LVU766
 2746              		.loc 1 804 2 discriminator 2 view .LVU767
 2747              		.loc 1 804 2 discriminator 2 view .LVU768
 2748 0054 FEE7     		b	.L192
 2749              	.L196:
 2750              		.loc 1 817 30 is_stmt 0 view .LVU769
 2751 0056 4FF00008 		mov	r8, #0
 2752 005a E0E7     		b	.L193
 2753              	.LVL233:
 2754              	.L202:
 2755              		.loc 1 829 3 is_stmt 1 view .LVU770
 2756              		.loc 1 829 21 is_stmt 0 view .LVU771
 2757 005c CDF80080 		str	r8, [sp]
 2758 0060 0346     		mov	r3, r0
 2759 0062 3246     		mov	r2, r6
 2760 0064 3946     		mov	r1, r7
 2761 0066 2046     		mov	r0, r4
 2762              	.LVL234:
 2763              		.loc 1 829 21 view .LVU772
 2764 0068 0F4E     		ldr	r6, .L203+4
 2765              	.LVL235:
 2766              		.loc 1 829 21 view .LVU773
 2767 006a B047     		blx	r6
ARM GAS  C:\Users\Test\AppData\Local\Temp\ccxnBkka.s 			page 49


 2768              	.LVL236:
 2769              		.loc 1 832 3 is_stmt 1 view .LVU774
 2770              		.loc 1 832 5 is_stmt 0 view .LVU775
 2771 006c 0646     		mov	r6, r0
 2772 006e 0028     		cmp	r0, #0
 2773 0070 DBD0     		beq	.L188
 2774              	.LBB153:
 2775              		.loc 1 834 4 is_stmt 1 view .LVU776
 2776              		.loc 1 834 4 view .LVU777
 2777              	.LBB154:
 2778              	.LBI154:
 2779              		.loc 2 207 34 view .LVU778
 2780              	.LBB155:
 2781              		.loc 2 209 1 view .LVU779
 2782              		.loc 2 211 2 view .LVU780
 2783              		.syntax unified
 2784              	@ 211 "Middlewares/Third_Party/FreeRTOS/Source/portable/GCC/ARM_CM3/portmacro.h" 1
 2785 0072 EFF31187 			mrs r7, basepri											
 2786 0076 4FF05003 		mov r3, #80												
 2787 007a 83F31188 		msr basepri, r3											
 2788 007e BFF36F8F 		isb														
 2789 0082 BFF34F8F 		dsb														
 2790              	
 2791              	@ 0 "" 2
 2792              	.LVL237:
 2793              		.loc 2 223 2 view .LVU781
 2794              		.loc 2 223 2 is_stmt 0 view .LVU782
 2795              		.thumb
 2796              		.syntax unified
 2797              	.LBE155:
 2798              	.LBE154:
 2799              		.loc 1 834 4 is_stmt 1 view .LVU783
 2800 0086 6369     		ldr	r3, [r4, #20]
 2801 0088 43B1     		cbz	r3, .L195
 2802              		.loc 1 834 4 discriminator 1 view .LVU784
 2803 008a 6069     		ldr	r0, [r4, #20]
 2804              	.LVL238:
 2805              		.loc 1 834 4 is_stmt 0 discriminator 1 view .LVU785
 2806 008c 0095     		str	r5, [sp]
 2807 008e 0023     		movs	r3, #0
 2808 0090 1A46     		mov	r2, r3
 2809 0092 1946     		mov	r1, r3
 2810 0094 054D     		ldr	r5, .L203+8
 2811              	.LVL239:
 2812              		.loc 1 834 4 discriminator 1 view .LVU786
 2813 0096 A847     		blx	r5
 2814              	.LVL240:
 2815              		.loc 1 834 4 is_stmt 1 discriminator 1 view .LVU787
 2816 0098 0023     		movs	r3, #0
 2817 009a 6361     		str	r3, [r4, #20]
 2818              	.L195:
 2819              		.loc 1 834 4 discriminator 3 view .LVU788
 2820              	.LVL241:
 2821              	.LBB156:
 2822              	.LBI156:
 2823              		.loc 2 227 30 discriminator 3 view .LVU789
 2824              	.LBB157:
ARM GAS  C:\Users\Test\AppData\Local\Temp\ccxnBkka.s 			page 50


 2825              		.loc 2 229 2 discriminator 3 view .LVU790
 2826              		.syntax unified
 2827              	@ 229 "Middlewares/Third_Party/FreeRTOS/Source/portable/GCC/ARM_CM3/portmacro.h" 1
 2828 009c 87F31188 			msr basepri, r7	
 2829              	@ 0 "" 2
 2830              		.loc 2 233 1 is_stmt 0 discriminator 3 view .LVU791
 2831              		.thumb
 2832              		.syntax unified
 2833 00a0 C3E7     		b	.L188
 2834              	.L204:
 2835 00a2 00BF     		.align	2
 2836              	.L203:
 2837 00a4 00000000 		.word	prvBytesInBuffer
 2838 00a8 00000000 		.word	prvReadMessageFromBuffer
 2839 00ac 00000000 		.word	xTaskGenericNotifyFromISR
 2840              	.LBE157:
 2841              	.LBE156:
 2842              	.LBE153:
 2843              		.cfi_endproc
 2844              	.LFE15:
 2846              		.section	.text.xStreamBufferIsEmpty,"ax",%progbits
 2847              		.align	1
 2848              		.global	xStreamBufferIsEmpty
 2849              		.syntax unified
 2850              		.thumb
 2851              		.thumb_func
 2852              		.fpu softvfp
 2854              	xStreamBufferIsEmpty:
 2855              	.LVL242:
 2856              	.LFB17:
 2857              		.loc 1 903 1 is_stmt 1 view -0
 2858              		.cfi_startproc
 2859              		@ args = 0, pretend = 0, frame = 0
 2860              		@ frame_needed = 0, uses_anonymous_args = 0
 2861              		@ link register save eliminated.
 2862              		.loc 1 904 1 view .LVU793
 2863              		.loc 1 905 1 view .LVU794
 2864              		.loc 1 906 1 view .LVU795
 2865              		.loc 1 908 2 view .LVU796
 2866 0000 28B1     		cbz	r0, .L210
 2867              		.loc 1 908 32 discriminator 2 view .LVU797
 2868              		.loc 1 911 2 discriminator 2 view .LVU798
 2869              		.loc 1 911 8 is_stmt 0 discriminator 2 view .LVU799
 2870 0002 0268     		ldr	r2, [r0]
 2871              	.LVL243:
 2872              		.loc 1 912 2 is_stmt 1 discriminator 2 view .LVU800
 2873              		.loc 1 912 20 is_stmt 0 discriminator 2 view .LVU801
 2874 0004 4368     		ldr	r3, [r0, #4]
 2875              		.loc 1 912 4 discriminator 2 view .LVU802
 2876 0006 9342     		cmp	r3, r2
 2877 0008 0AD0     		beq	.L211
 2878              		.loc 1 918 11 view .LVU803
 2879 000a 0020     		movs	r0, #0
 2880              	.LVL244:
 2881              		.loc 1 921 2 is_stmt 1 view .LVU804
 2882              		.loc 1 922 1 is_stmt 0 view .LVU805
 2883 000c 7047     		bx	lr
ARM GAS  C:\Users\Test\AppData\Local\Temp\ccxnBkka.s 			page 51


 2884              	.LVL245:
 2885              	.L210:
 2886              		.loc 1 908 2 is_stmt 1 view .LVU806
 2887              	.LBB158:
 2888              	.LBI158:
 2889              		.loc 2 191 30 view .LVU807
 2890              	.LBB159:
 2891              		.loc 2 193 1 view .LVU808
 2892              		.loc 2 195 2 view .LVU809
 2893              		.syntax unified
 2894              	@ 195 "Middlewares/Third_Party/FreeRTOS/Source/portable/GCC/ARM_CM3/portmacro.h" 1
 2895 000e 4FF05003 			mov r3, #80												
 2896 0012 83F31188 		msr basepri, r3											
 2897 0016 BFF36F8F 		isb														
 2898 001a BFF34F8F 		dsb														
 2899              	
 2900              	@ 0 "" 2
 2901              	.LVL246:
 2902              		.thumb
 2903              		.syntax unified
 2904              	.L207:
 2905              		.loc 2 195 2 is_stmt 0 view .LVU810
 2906              	.LBE159:
 2907              	.LBE158:
 2908              		.loc 1 908 2 is_stmt 1 discriminator 1 view .LVU811
 2909              		.loc 1 908 2 discriminator 1 view .LVU812
 2910              		.loc 1 908 2 discriminator 1 view .LVU813
 2911 001e FEE7     		b	.L207
 2912              	.LVL247:
 2913              	.L211:
 2914              		.loc 1 914 11 is_stmt 0 view .LVU814
 2915 0020 0120     		movs	r0, #1
 2916              	.LVL248:
 2917              		.loc 1 914 11 view .LVU815
 2918 0022 7047     		bx	lr
 2919              		.cfi_endproc
 2920              	.LFE17:
 2922              		.section	.text.xStreamBufferIsFull,"ax",%progbits
 2923              		.align	1
 2924              		.global	xStreamBufferIsFull
 2925              		.syntax unified
 2926              		.thumb
 2927              		.thumb_func
 2928              		.fpu softvfp
 2930              	xStreamBufferIsFull:
 2931              	.LVL249:
 2932              	.LFB18:
 2933              		.loc 1 926 1 is_stmt 1 view -0
 2934              		.cfi_startproc
 2935              		@ args = 0, pretend = 0, frame = 0
 2936              		@ frame_needed = 0, uses_anonymous_args = 0
 2937              		.loc 1 927 1 view .LVU817
 2938              		.loc 1 928 1 view .LVU818
 2939              		.loc 1 929 1 view .LVU819
 2940              		.loc 1 931 2 view .LVU820
 2941 0000 68B1     		cbz	r0, .L221
 2942              		.loc 1 926 1 is_stmt 0 discriminator 2 view .LVU821
ARM GAS  C:\Users\Test\AppData\Local\Temp\ccxnBkka.s 			page 52


 2943 0002 10B5     		push	{r4, lr}
 2944              	.LCFI46:
 2945              		.cfi_def_cfa_offset 8
 2946              		.cfi_offset 4, -8
 2947              		.cfi_offset 14, -4
 2948 0004 0346     		mov	r3, r0
 2949              		.loc 1 931 32 is_stmt 1 discriminator 2 view .LVU822
 2950              		.loc 1 937 2 discriminator 2 view .LVU823
 2951              		.loc 1 937 22 is_stmt 0 discriminator 2 view .LVU824
 2952 0006 027F     		ldrb	r2, [r0, #28]	@ zero_extendqisi2
 2953              		.loc 1 937 4 discriminator 2 view .LVU825
 2954 0008 12F0010F 		tst	r2, #1
 2955 000c 10D0     		beq	.L217
 2956              		.loc 1 939 30 view .LVU826
 2957 000e 0424     		movs	r4, #4
 2958              	.L215:
 2959              	.LVL250:
 2960              		.loc 1 947 2 is_stmt 1 view .LVU827
 2961              		.loc 1 947 6 is_stmt 0 view .LVU828
 2962 0010 1846     		mov	r0, r3
 2963              	.LVL251:
 2964              		.loc 1 947 6 view .LVU829
 2965 0012 094B     		ldr	r3, .L222
 2966              	.LVL252:
 2967              		.loc 1 947 6 view .LVU830
 2968 0014 9847     		blx	r3
 2969              	.LVL253:
 2970              		.loc 1 947 4 view .LVU831
 2971 0016 A042     		cmp	r0, r4
 2972 0018 0CD8     		bhi	.L218
 2973              		.loc 1 949 11 view .LVU832
 2974 001a 0120     		movs	r0, #1
 2975              	.L212:
 2976              		.loc 1 957 1 view .LVU833
 2977 001c 10BD     		pop	{r4, pc}
 2978              	.LVL254:
 2979              	.L221:
 2980              	.LCFI47:
 2981              		.cfi_def_cfa_offset 0
 2982              		.cfi_restore 4
 2983              		.cfi_restore 14
 2984              		.loc 1 931 2 is_stmt 1 view .LVU834
 2985              	.LBB160:
 2986              	.LBI160:
 2987              		.loc 2 191 30 view .LVU835
 2988              	.LBB161:
 2989              		.loc 2 193 1 view .LVU836
 2990              		.loc 2 195 2 view .LVU837
 2991              		.syntax unified
 2992              	@ 195 "Middlewares/Third_Party/FreeRTOS/Source/portable/GCC/ARM_CM3/portmacro.h" 1
 2993 001e 4FF05003 			mov r3, #80												
 2994 0022 83F31188 		msr basepri, r3											
 2995 0026 BFF36F8F 		isb														
 2996 002a BFF34F8F 		dsb														
 2997              	
 2998              	@ 0 "" 2
 2999              	.LVL255:
ARM GAS  C:\Users\Test\AppData\Local\Temp\ccxnBkka.s 			page 53


 3000              		.thumb
 3001              		.syntax unified
 3002              	.L214:
 3003              		.loc 2 195 2 is_stmt 0 view .LVU838
 3004              	.LBE161:
 3005              	.LBE160:
 3006              		.loc 1 931 2 is_stmt 1 discriminator 1 view .LVU839
 3007              		.loc 1 931 2 discriminator 1 view .LVU840
 3008              		.loc 1 931 2 discriminator 1 view .LVU841
 3009 002e FEE7     		b	.L214
 3010              	.L217:
 3011              	.LCFI48:
 3012              		.cfi_def_cfa_offset 8
 3013              		.cfi_offset 4, -8
 3014              		.cfi_offset 14, -4
 3015              		.loc 1 943 30 is_stmt 0 view .LVU842
 3016 0030 0024     		movs	r4, #0
 3017 0032 EDE7     		b	.L215
 3018              	.LVL256:
 3019              	.L218:
 3020              		.loc 1 953 11 view .LVU843
 3021 0034 0020     		movs	r0, #0
 3022              	.LVL257:
 3023              		.loc 1 956 2 is_stmt 1 view .LVU844
 3024              		.loc 1 956 9 is_stmt 0 view .LVU845
 3025 0036 F1E7     		b	.L212
 3026              	.L223:
 3027              		.align	2
 3028              	.L222:
 3029 0038 00000000 		.word	xStreamBufferSpacesAvailable
 3030              		.cfi_endproc
 3031              	.LFE18:
 3033              		.section	.text.xStreamBufferSendCompletedFromISR,"ax",%progbits
 3034              		.align	1
 3035              		.global	xStreamBufferSendCompletedFromISR
 3036              		.syntax unified
 3037              		.thumb
 3038              		.thumb_func
 3039              		.fpu softvfp
 3041              	xStreamBufferSendCompletedFromISR:
 3042              	.LVL258:
 3043              	.LFB19:
 3044              		.loc 1 961 1 is_stmt 1 view -0
 3045              		.cfi_startproc
 3046              		@ args = 0, pretend = 0, frame = 0
 3047              		@ frame_needed = 0, uses_anonymous_args = 0
 3048              		.loc 1 962 1 view .LVU847
 3049              		.loc 1 963 1 view .LVU848
 3050              		.loc 1 964 1 view .LVU849
 3051              		.loc 1 966 2 view .LVU850
 3052 0000 E0B1     		cbz	r0, .L231
 3053              		.loc 1 961 1 is_stmt 0 view .LVU851
 3054 0002 70B5     		push	{r4, r5, r6, lr}
 3055              	.LCFI49:
 3056              		.cfi_def_cfa_offset 16
 3057              		.cfi_offset 4, -16
 3058              		.cfi_offset 5, -12
ARM GAS  C:\Users\Test\AppData\Local\Temp\ccxnBkka.s 			page 54


 3059              		.cfi_offset 6, -8
 3060              		.cfi_offset 14, -4
 3061 0004 82B0     		sub	sp, sp, #8
 3062              	.LCFI50:
 3063              		.cfi_def_cfa_offset 24
 3064 0006 0446     		mov	r4, r0
 3065              		.loc 1 966 32 is_stmt 1 view .LVU852
 3066              		.loc 1 968 2 view .LVU853
 3067              	.LBB162:
 3068              	.LBI162:
 3069              		.loc 2 207 34 view .LVU854
 3070              	.LBB163:
 3071              		.loc 2 209 1 view .LVU855
 3072              		.loc 2 211 2 view .LVU856
 3073              		.syntax unified
 3074              	@ 211 "Middlewares/Third_Party/FreeRTOS/Source/portable/GCC/ARM_CM3/portmacro.h" 1
 3075 0008 EFF31185 			mrs r5, basepri											
 3076 000c 4FF05003 		mov r3, #80												
 3077 0010 83F31188 		msr basepri, r3											
 3078 0014 BFF36F8F 		isb														
 3079 0018 BFF34F8F 		dsb														
 3080              	
 3081              	@ 0 "" 2
 3082              	.LVL259:
 3083              		.loc 2 223 2 view .LVU857
 3084              		.loc 2 223 2 is_stmt 0 view .LVU858
 3085              		.thumb
 3086              		.syntax unified
 3087              	.LBE163:
 3088              	.LBE162:
 3089              		.loc 1 970 3 is_stmt 1 view .LVU859
 3090              		.loc 1 970 25 is_stmt 0 view .LVU860
 3091 001c 0369     		ldr	r3, [r0, #16]
 3092              		.loc 1 970 5 view .LVU861
 3093 001e B3B1     		cbz	r3, .L228
 3094              		.loc 1 972 4 is_stmt 1 view .LVU862
 3095              		.loc 1 972 13 is_stmt 0 view .LVU863
 3096 0020 0069     		ldr	r0, [r0, #16]
 3097              	.LVL260:
 3098              		.loc 1 972 13 view .LVU864
 3099 0022 0091     		str	r1, [sp]
 3100 0024 0023     		movs	r3, #0
 3101 0026 1A46     		mov	r2, r3
 3102 0028 1946     		mov	r1, r3
 3103              	.LVL261:
 3104              		.loc 1 972 13 view .LVU865
 3105 002a 0A4E     		ldr	r6, .L232
 3106 002c B047     		blx	r6
 3107              	.LVL262:
 3108              		.loc 1 976 4 is_stmt 1 view .LVU866
 3109              		.loc 1 976 46 is_stmt 0 view .LVU867
 3110 002e 0023     		movs	r3, #0
 3111 0030 2361     		str	r3, [r4, #16]
 3112              		.loc 1 977 4 is_stmt 1 view .LVU868
 3113              	.LVL263:
 3114              		.loc 1 977 12 is_stmt 0 view .LVU869
 3115 0032 0120     		movs	r0, #1
ARM GAS  C:\Users\Test\AppData\Local\Temp\ccxnBkka.s 			page 55


 3116              	.LVL264:
 3117              	.L227:
 3118              		.loc 1 984 2 is_stmt 1 view .LVU870
 3119              	.LBB164:
 3120              	.LBI164:
 3121              		.loc 2 227 30 view .LVU871
 3122              	.LBB165:
 3123              		.loc 2 229 2 view .LVU872
 3124              		.syntax unified
 3125              	@ 229 "Middlewares/Third_Party/FreeRTOS/Source/portable/GCC/ARM_CM3/portmacro.h" 1
 3126 0034 85F31188 			msr basepri, r5	
 3127              	@ 0 "" 2
 3128              	.LVL265:
 3129              		.loc 2 229 2 is_stmt 0 view .LVU873
 3130              		.thumb
 3131              		.syntax unified
 3132              	.LBE165:
 3133              	.LBE164:
 3134              		.loc 1 986 2 is_stmt 1 view .LVU874
 3135              		.loc 1 987 1 is_stmt 0 view .LVU875
 3136 0038 02B0     		add	sp, sp, #8
 3137              	.LCFI51:
 3138              		.cfi_def_cfa_offset 16
 3139              		@ sp needed
 3140 003a 70BD     		pop	{r4, r5, r6, pc}
 3141              	.LVL266:
 3142              	.L231:
 3143              	.LCFI52:
 3144              		.cfi_def_cfa_offset 0
 3145              		.cfi_restore 4
 3146              		.cfi_restore 5
 3147              		.cfi_restore 6
 3148              		.cfi_restore 14
 3149              		.loc 1 966 2 is_stmt 1 view .LVU876
 3150              	.LBB166:
 3151              	.LBI166:
 3152              		.loc 2 191 30 view .LVU877
 3153              	.LBB167:
 3154              		.loc 2 193 1 view .LVU878
 3155              		.loc 2 195 2 view .LVU879
 3156              		.syntax unified
 3157              	@ 195 "Middlewares/Third_Party/FreeRTOS/Source/portable/GCC/ARM_CM3/portmacro.h" 1
 3158 003c 4FF05003 			mov r3, #80												
 3159 0040 83F31188 		msr basepri, r3											
 3160 0044 BFF36F8F 		isb														
 3161 0048 BFF34F8F 		dsb														
 3162              	
 3163              	@ 0 "" 2
 3164              	.LVL267:
 3165              		.thumb
 3166              		.syntax unified
 3167              	.L226:
 3168              		.loc 2 195 2 is_stmt 0 view .LVU880
 3169              	.LBE167:
 3170              	.LBE166:
 3171              		.loc 1 966 2 is_stmt 1 discriminator 1 view .LVU881
 3172              		.loc 1 966 2 discriminator 1 view .LVU882
ARM GAS  C:\Users\Test\AppData\Local\Temp\ccxnBkka.s 			page 56


 3173              		.loc 1 966 2 discriminator 1 view .LVU883
 3174 004c FEE7     		b	.L226
 3175              	.LVL268:
 3176              	.L228:
 3177              	.LCFI53:
 3178              		.cfi_def_cfa_offset 24
 3179              		.cfi_offset 4, -16
 3180              		.cfi_offset 5, -12
 3181              		.cfi_offset 6, -8
 3182              		.cfi_offset 14, -4
 3183              		.loc 1 981 12 is_stmt 0 view .LVU884
 3184 004e 0020     		movs	r0, #0
 3185              	.LVL269:
 3186              		.loc 1 981 12 view .LVU885
 3187 0050 F0E7     		b	.L227
 3188              	.L233:
 3189 0052 00BF     		.align	2
 3190              	.L232:
 3191 0054 00000000 		.word	xTaskGenericNotifyFromISR
 3192              		.cfi_endproc
 3193              	.LFE19:
 3195              		.section	.text.xStreamBufferReceiveCompletedFromISR,"ax",%progbits
 3196              		.align	1
 3197              		.global	xStreamBufferReceiveCompletedFromISR
 3198              		.syntax unified
 3199              		.thumb
 3200              		.thumb_func
 3201              		.fpu softvfp
 3203              	xStreamBufferReceiveCompletedFromISR:
 3204              	.LVL270:
 3205              	.LFB20:
 3206              		.loc 1 991 1 is_stmt 1 view -0
 3207              		.cfi_startproc
 3208              		@ args = 0, pretend = 0, frame = 0
 3209              		@ frame_needed = 0, uses_anonymous_args = 0
 3210              		.loc 1 992 1 view .LVU887
 3211              		.loc 1 993 1 view .LVU888
 3212              		.loc 1 994 1 view .LVU889
 3213              		.loc 1 996 2 view .LVU890
 3214 0000 E0B1     		cbz	r0, .L241
 3215              		.loc 1 991 1 is_stmt 0 view .LVU891
 3216 0002 70B5     		push	{r4, r5, r6, lr}
 3217              	.LCFI54:
 3218              		.cfi_def_cfa_offset 16
 3219              		.cfi_offset 4, -16
 3220              		.cfi_offset 5, -12
 3221              		.cfi_offset 6, -8
 3222              		.cfi_offset 14, -4
 3223 0004 82B0     		sub	sp, sp, #8
 3224              	.LCFI55:
 3225              		.cfi_def_cfa_offset 24
 3226 0006 0446     		mov	r4, r0
 3227              		.loc 1 996 32 is_stmt 1 view .LVU892
 3228              		.loc 1 998 2 view .LVU893
 3229              	.LBB168:
 3230              	.LBI168:
 3231              		.loc 2 207 34 view .LVU894
ARM GAS  C:\Users\Test\AppData\Local\Temp\ccxnBkka.s 			page 57


 3232              	.LBB169:
 3233              		.loc 2 209 1 view .LVU895
 3234              		.loc 2 211 2 view .LVU896
 3235              		.syntax unified
 3236              	@ 211 "Middlewares/Third_Party/FreeRTOS/Source/portable/GCC/ARM_CM3/portmacro.h" 1
 3237 0008 EFF31185 			mrs r5, basepri											
 3238 000c 4FF05003 		mov r3, #80												
 3239 0010 83F31188 		msr basepri, r3											
 3240 0014 BFF36F8F 		isb														
 3241 0018 BFF34F8F 		dsb														
 3242              	
 3243              	@ 0 "" 2
 3244              	.LVL271:
 3245              		.loc 2 223 2 view .LVU897
 3246              		.loc 2 223 2 is_stmt 0 view .LVU898
 3247              		.thumb
 3248              		.syntax unified
 3249              	.LBE169:
 3250              	.LBE168:
 3251              		.loc 1 1000 3 is_stmt 1 view .LVU899
 3252              		.loc 1 1000 25 is_stmt 0 view .LVU900
 3253 001c 4369     		ldr	r3, [r0, #20]
 3254              		.loc 1 1000 5 view .LVU901
 3255 001e B3B1     		cbz	r3, .L238
 3256              		.loc 1 1002 4 is_stmt 1 view .LVU902
 3257              		.loc 1 1002 13 is_stmt 0 view .LVU903
 3258 0020 4069     		ldr	r0, [r0, #20]
 3259              	.LVL272:
 3260              		.loc 1 1002 13 view .LVU904
 3261 0022 0091     		str	r1, [sp]
 3262 0024 0023     		movs	r3, #0
 3263 0026 1A46     		mov	r2, r3
 3264 0028 1946     		mov	r1, r3
 3265              	.LVL273:
 3266              		.loc 1 1002 13 view .LVU905
 3267 002a 0A4E     		ldr	r6, .L242
 3268 002c B047     		blx	r6
 3269              	.LVL274:
 3270              		.loc 1 1006 4 is_stmt 1 view .LVU906
 3271              		.loc 1 1006 43 is_stmt 0 view .LVU907
 3272 002e 0023     		movs	r3, #0
 3273 0030 6361     		str	r3, [r4, #20]
 3274              		.loc 1 1007 4 is_stmt 1 view .LVU908
 3275              	.LVL275:
 3276              		.loc 1 1007 12 is_stmt 0 view .LVU909
 3277 0032 0120     		movs	r0, #1
 3278              	.LVL276:
 3279              	.L237:
 3280              		.loc 1 1014 2 is_stmt 1 view .LVU910
 3281              	.LBB170:
 3282              	.LBI170:
 3283              		.loc 2 227 30 view .LVU911
 3284              	.LBB171:
 3285              		.loc 2 229 2 view .LVU912
 3286              		.syntax unified
 3287              	@ 229 "Middlewares/Third_Party/FreeRTOS/Source/portable/GCC/ARM_CM3/portmacro.h" 1
 3288 0034 85F31188 			msr basepri, r5	
ARM GAS  C:\Users\Test\AppData\Local\Temp\ccxnBkka.s 			page 58


 3289              	@ 0 "" 2
 3290              	.LVL277:
 3291              		.loc 2 229 2 is_stmt 0 view .LVU913
 3292              		.thumb
 3293              		.syntax unified
 3294              	.LBE171:
 3295              	.LBE170:
 3296              		.loc 1 1016 2 is_stmt 1 view .LVU914
 3297              		.loc 1 1017 1 is_stmt 0 view .LVU915
 3298 0038 02B0     		add	sp, sp, #8
 3299              	.LCFI56:
 3300              		.cfi_def_cfa_offset 16
 3301              		@ sp needed
 3302 003a 70BD     		pop	{r4, r5, r6, pc}
 3303              	.LVL278:
 3304              	.L241:
 3305              	.LCFI57:
 3306              		.cfi_def_cfa_offset 0
 3307              		.cfi_restore 4
 3308              		.cfi_restore 5
 3309              		.cfi_restore 6
 3310              		.cfi_restore 14
 3311              		.loc 1 996 2 is_stmt 1 view .LVU916
 3312              	.LBB172:
 3313              	.LBI172:
 3314              		.loc 2 191 30 view .LVU917
 3315              	.LBB173:
 3316              		.loc 2 193 1 view .LVU918
 3317              		.loc 2 195 2 view .LVU919
 3318              		.syntax unified
 3319              	@ 195 "Middlewares/Third_Party/FreeRTOS/Source/portable/GCC/ARM_CM3/portmacro.h" 1
 3320 003c 4FF05003 			mov r3, #80												
 3321 0040 83F31188 		msr basepri, r3											
 3322 0044 BFF36F8F 		isb														
 3323 0048 BFF34F8F 		dsb														
 3324              	
 3325              	@ 0 "" 2
 3326              	.LVL279:
 3327              		.thumb
 3328              		.syntax unified
 3329              	.L236:
 3330              		.loc 2 195 2 is_stmt 0 view .LVU920
 3331              	.LBE173:
 3332              	.LBE172:
 3333              		.loc 1 996 2 is_stmt 1 discriminator 1 view .LVU921
 3334              		.loc 1 996 2 discriminator 1 view .LVU922
 3335              		.loc 1 996 2 discriminator 1 view .LVU923
 3336 004c FEE7     		b	.L236
 3337              	.LVL280:
 3338              	.L238:
 3339              	.LCFI58:
 3340              		.cfi_def_cfa_offset 24
 3341              		.cfi_offset 4, -16
 3342              		.cfi_offset 5, -12
 3343              		.cfi_offset 6, -8
 3344              		.cfi_offset 14, -4
 3345              		.loc 1 1011 12 is_stmt 0 view .LVU924
ARM GAS  C:\Users\Test\AppData\Local\Temp\ccxnBkka.s 			page 59


 3346 004e 0020     		movs	r0, #0
 3347              	.LVL281:
 3348              		.loc 1 1011 12 view .LVU925
 3349 0050 F0E7     		b	.L237
 3350              	.L243:
 3351 0052 00BF     		.align	2
 3352              	.L242:
 3353 0054 00000000 		.word	xTaskGenericNotifyFromISR
 3354              		.cfi_endproc
 3355              	.LFE20:
 3357              		.section	.text.uxStreamBufferGetStreamBufferNumber,"ax",%progbits
 3358              		.align	1
 3359              		.global	uxStreamBufferGetStreamBufferNumber
 3360              		.syntax unified
 3361              		.thumb
 3362              		.thumb_func
 3363              		.fpu softvfp
 3365              	uxStreamBufferGetStreamBufferNumber:
 3366              	.LVL282:
 3367              	.LFB25:
 3368              		.loc 1 1174 2 is_stmt 1 view -0
 3369              		.cfi_startproc
 3370              		@ args = 0, pretend = 0, frame = 0
 3371              		@ frame_needed = 0, uses_anonymous_args = 0
 3372              		@ link register save eliminated.
 3373              		.loc 1 1175 3 view .LVU927
 3374              		.loc 1 1176 2 is_stmt 0 view .LVU928
 3375 0000 006A     		ldr	r0, [r0, #32]
 3376              	.LVL283:
 3377              		.loc 1 1176 2 view .LVU929
 3378 0002 7047     		bx	lr
 3379              		.cfi_endproc
 3380              	.LFE25:
 3382              		.section	.text.vStreamBufferSetStreamBufferNumber,"ax",%progbits
 3383              		.align	1
 3384              		.global	vStreamBufferSetStreamBufferNumber
 3385              		.syntax unified
 3386              		.thumb
 3387              		.thumb_func
 3388              		.fpu softvfp
 3390              	vStreamBufferSetStreamBufferNumber:
 3391              	.LVL284:
 3392              	.LFB26:
 3393              		.loc 1 1184 2 is_stmt 1 view -0
 3394              		.cfi_startproc
 3395              		@ args = 0, pretend = 0, frame = 0
 3396              		@ frame_needed = 0, uses_anonymous_args = 0
 3397              		@ link register save eliminated.
 3398              		.loc 1 1185 3 view .LVU931
 3399              		.loc 1 1185 64 is_stmt 0 view .LVU932
 3400 0000 0162     		str	r1, [r0, #32]
 3401              		.loc 1 1186 2 view .LVU933
 3402 0002 7047     		bx	lr
 3403              		.cfi_endproc
 3404              	.LFE26:
 3406              		.section	.text.ucStreamBufferGetStreamBufferType,"ax",%progbits
 3407              		.align	1
ARM GAS  C:\Users\Test\AppData\Local\Temp\ccxnBkka.s 			page 60


 3408              		.global	ucStreamBufferGetStreamBufferType
 3409              		.syntax unified
 3410              		.thumb
 3411              		.thumb_func
 3412              		.fpu softvfp
 3414              	ucStreamBufferGetStreamBufferType:
 3415              	.LVL285:
 3416              	.LFB27:
 3417              		.loc 1 1194 2 is_stmt 1 view -0
 3418              		.cfi_startproc
 3419              		@ args = 0, pretend = 0, frame = 0
 3420              		@ frame_needed = 0, uses_anonymous_args = 0
 3421              		@ link register save eliminated.
 3422              		.loc 1 1195 3 view .LVU935
 3423              		.loc 1 1195 47 is_stmt 0 view .LVU936
 3424 0000 007F     		ldrb	r0, [r0, #28]	@ zero_extendqisi2
 3425              	.LVL286:
 3426              		.loc 1 1196 2 view .LVU937
 3427 0002 40F00100 		orr	r0, r0, #1
 3428 0006 7047     		bx	lr
 3429              		.cfi_endproc
 3430              	.LFE27:
 3432              		.text
 3433              	.Letext0:
 3434              		.file 3 "../c:\\users\\test\\desktop\\gnu mcu\\arm-none-eabi-gcc-10.2.1-1.1\\arm-none-eabi\\includ
 3435              		.file 4 "../c:\\users\\test\\desktop\\gnu mcu\\arm-none-eabi-gcc-10.2.1-1.1\\arm-none-eabi\\includ
 3436              		.file 5 "../c:\\users\\test\\desktop\\gnu mcu\\arm-none-eabi-gcc-10.2.1-1.1\\lib\\gcc\\arm-none-ea
 3437              		.file 6 "../Middlewares/Third_Party/FreeRTOS/Source/include/FreeRTOS.h"
 3438              		.file 7 "../Middlewares/Third_Party/FreeRTOS/Source/include/task.h"
 3439              		.file 8 "../Middlewares/Third_Party/FreeRTOS/Source/include/stream_buffer.h"
 3440              		.file 9 "../<built-in>"
 3441              		.file 10 "../Middlewares/Third_Party/FreeRTOS/Source/include/portable.h"
ARM GAS  C:\Users\Test\AppData\Local\Temp\ccxnBkka.s 			page 61

