ARM GAS  C:\Users\Test\AppData\Local\Temp\ccYEQElh.s 			page 1


   1              		.cpu cortex-m3
   2              		.eabi_attribute 20, 1
   3              		.eabi_attribute 21, 1
   4              		.eabi_attribute 23, 3
   5              		.eabi_attribute 24, 1
   6              		.eabi_attribute 25, 1
   7              		.eabi_attribute 26, 1
   8              		.eabi_attribute 30, 1
   9              		.eabi_attribute 34, 1
  10              		.eabi_attribute 18, 4
  11              		.file	"tasks.c"
  12              		.text
  13              	.Ltext0:
  14              		.cfi_sections	.debug_frame
  15              		.section	.text.prvTaskIsTaskSuspended,"ax",%progbits
  16              		.align	1
  17              		.arch armv7-m
  18              		.syntax unified
  19              		.thumb
  20              		.thumb_func
  21              		.fpu softvfp
  23              	prvTaskIsTaskSuspended:
  24              	.LVL0:
  25              	.LFB16:
  26              		.file 1 "../Middlewares/Third_Party/FreeRTOS/Source/tasks.c"
   1:../Middlewares/Third_Party/FreeRTOS/Source/tasks.c **** 
  27              		.loc 1 1726 2 view -0
  28              		.cfi_startproc
  29              		@ args = 0, pretend = 0, frame = 0
  30              		@ frame_needed = 0, uses_anonymous_args = 0
  31              		@ link register save eliminated.
  32              		.loc 1 1727 2 view .LVU1
  33              		.loc 1 1728 2 view .LVU2
  34              		.loc 1 1734 3 view .LVU3
  35 0000 28B1     		cbz	r0, .L8
  36              		.loc 1 1734 24 discriminator 2 view .LVU4
  37              		.loc 1 1737 3 discriminator 2 view .LVU5
  38              		.loc 1 1737 7 is_stmt 0 discriminator 2 view .LVU6
  39 0002 4169     		ldr	r1, [r0, #20]
  40              		.loc 1 1737 82 discriminator 2 view .LVU7
  41 0004 0C4A     		ldr	r2, .L10
  42 0006 9142     		cmp	r1, r2
  43 0008 0AD0     		beq	.L9
  44              		.loc 1 1727 13 view .LVU8
  45 000a 0020     		movs	r0, #0
  46              	.LVL1:
  47              		.loc 1 1727 13 view .LVU9
  48 000c 7047     		bx	lr
  49              	.LVL2:
  50              	.L8:
  51              		.loc 1 1734 3 is_stmt 1 view .LVU10
  52              	.LBB113:
  53              	.LBI113:
  54              		.file 2 "../Middlewares/Third_Party/FreeRTOS/Source/portable/GCC/ARM_CM3/portmacro.h"
   1:../Middlewares/Third_Party/FreeRTOS/Source/portable/GCC/ARM_CM3/portmacro.h **** 
  55              		.loc 2 191 30 view .LVU11
  56              	.LBB114:
ARM GAS  C:\Users\Test\AppData\Local\Temp\ccYEQElh.s 			page 2


  57              		.loc 2 193 1 view .LVU12
  58              		.loc 2 195 2 view .LVU13
  59              		.syntax unified
  60              	@ 195 "Middlewares/Third_Party/FreeRTOS/Source/portable/GCC/ARM_CM3/portmacro.h" 1
  61 000e 4FF05003 			mov r3, #80												
  62 0012 83F31188 		msr basepri, r3											
  63 0016 BFF36F8F 		isb														
  64 001a BFF34F8F 		dsb														
  65              	
  66              	@ 0 "" 2
  67              	.LVL3:
  68              		.thumb
  69              		.syntax unified
  70              	.L3:
  71              		.loc 2 195 2 is_stmt 0 view .LVU14
  72              	.LBE114:
  73              	.LBE113:
  74              		.loc 1 1734 3 is_stmt 1 discriminator 1 view .LVU15
  75              		.loc 1 1734 3 discriminator 1 view .LVU16
  76              		.loc 1 1734 3 discriminator 1 view .LVU17
  77 001e FEE7     		b	.L3
  78              	.L9:
  79              		.loc 1 1740 4 view .LVU18
  80              		.loc 1 1740 8 is_stmt 0 view .LVU19
  81 0020 836A     		ldr	r3, [r0, #40]
  82              		.loc 1 1740 6 view .LVU20
  83 0022 064A     		ldr	r2, .L10+4
  84 0024 9342     		cmp	r3, r2
  85 0026 02D0     		beq	.L6
  86              		.loc 1 1744 5 is_stmt 1 view .LVU21
  87              		.loc 1 1744 69 is_stmt 0 view .LVU22
  88 0028 1BB1     		cbz	r3, .L7
  89              		.loc 1 1727 13 view .LVU23
  90 002a 0020     		movs	r0, #0
  91              	.LVL4:
  92              		.loc 1 1727 13 view .LVU24
  93 002c 7047     		bx	lr
  94              	.LVL5:
  95              	.L6:
  96              		.loc 1 1727 13 view .LVU25
  97 002e 0020     		movs	r0, #0
  98              	.LVL6:
  99              		.loc 1 1727 13 view .LVU26
 100 0030 7047     		bx	lr
 101              	.LVL7:
 102              	.L7:
 103              		.loc 1 1746 14 view .LVU27
 104 0032 0120     		movs	r0, #1
 105              	.LVL8:
 106              		.loc 1 1760 28 is_stmt 1 view .LVU28
 107              		.loc 1 1763 3 view .LVU29
 108              		.loc 1 1764 2 is_stmt 0 view .LVU30
 109 0034 7047     		bx	lr
 110              	.L11:
 111 0036 00BF     		.align	2
 112              	.L10:
 113 0038 00000000 		.word	.LANCHOR0
ARM GAS  C:\Users\Test\AppData\Local\Temp\ccYEQElh.s 			page 3


 114 003c 00000000 		.word	.LANCHOR1
 115              		.cfi_endproc
 116              	.LFE16:
 118              		.section	.text.prvTaskCheckFreeStackSpace,"ax",%progbits
 119              		.align	1
 120              		.syntax unified
 121              		.thumb
 122              		.thumb_func
 123              		.fpu softvfp
 125              	prvTaskCheckFreeStackSpace:
 126              	.LVL9:
 127              	.LFB46:
 128              		.loc 1 3623 2 is_stmt 1 view -0
 129              		.cfi_startproc
 130              		@ args = 0, pretend = 0, frame = 0
 131              		@ frame_needed = 0, uses_anonymous_args = 0
 132              		@ link register save eliminated.
 133              		.loc 1 3624 2 view .LVU32
 134              		.loc 1 3626 3 view .LVU33
 135              		.loc 1 3624 11 is_stmt 0 view .LVU34
 136 0000 0023     		movs	r3, #0
 137              		.loc 1 3626 8 view .LVU35
 138 0002 01E0     		b	.L13
 139              	.LVL10:
 140              	.L14:
 141              		.loc 1 3628 4 is_stmt 1 view .LVU36
 142              		.loc 1 3628 17 is_stmt 0 view .LVU37
 143 0004 0130     		adds	r0, r0, #1
 144              	.LVL11:
 145              		.loc 1 3629 4 is_stmt 1 view .LVU38
 146              		.loc 1 3629 11 is_stmt 0 view .LVU39
 147 0006 0133     		adds	r3, r3, #1
 148              	.LVL12:
 149              	.L13:
 150              		.loc 1 3626 8 is_stmt 1 view .LVU40
 151              		.loc 1 3626 10 is_stmt 0 view .LVU41
 152 0008 0278     		ldrb	r2, [r0]	@ zero_extendqisi2
 153              		.loc 1 3626 8 view .LVU42
 154 000a A52A     		cmp	r2, #165
 155 000c FAD0     		beq	.L14
 156              		.loc 1 3632 3 is_stmt 1 view .LVU43
 157              	.LVL13:
 158              		.loc 1 3634 3 view .LVU44
 159              		.loc 1 3635 2 is_stmt 0 view .LVU45
 160 000e C3F38F00 		ubfx	r0, r3, #2, #16
 161              	.LVL14:
 162              		.loc 1 3635 2 view .LVU46
 163 0012 7047     		bx	lr
 164              		.cfi_endproc
 165              	.LFE46:
 167              		.section	.text.prvResetNextTaskUnblockTime,"ax",%progbits
 168              		.align	1
 169              		.syntax unified
 170              		.thumb
 171              		.thumb_func
 172              		.fpu softvfp
 174              	prvResetNextTaskUnblockTime:
ARM GAS  C:\Users\Test\AppData\Local\Temp\ccYEQElh.s 			page 4


 175              	.LFB49:
 176              		.loc 1 3725 1 is_stmt 1 view -0
 177              		.cfi_startproc
 178              		@ args = 0, pretend = 0, frame = 0
 179              		@ frame_needed = 0, uses_anonymous_args = 0
 180              		@ link register save eliminated.
 181              		.loc 1 3726 1 view .LVU48
 182              		.loc 1 3728 2 view .LVU49
 183              		.loc 1 3728 6 is_stmt 0 view .LVU50
 184 0000 084B     		ldr	r3, .L18
 185 0002 1B68     		ldr	r3, [r3]
 186 0004 1B68     		ldr	r3, [r3]
 187              		.loc 1 3728 45 view .LVU51
 188 0006 23B9     		cbnz	r3, .L16
 189              		.loc 1 3734 3 is_stmt 1 view .LVU52
 190              		.loc 1 3734 24 is_stmt 0 view .LVU53
 191 0008 074B     		ldr	r3, .L18+4
 192 000a 4FF0FF32 		mov	r2, #-1
 193 000e 1A60     		str	r2, [r3]
 194 0010 7047     		bx	lr
 195              	.L16:
 196              		.loc 1 3742 3 is_stmt 1 view .LVU54
 197              		.loc 1 3742 27 is_stmt 0 view .LVU55
 198 0012 044B     		ldr	r3, .L18
 199 0014 1B68     		ldr	r3, [r3]
 200 0016 DB68     		ldr	r3, [r3, #12]
 201              		.loc 1 3742 13 view .LVU56
 202 0018 DB68     		ldr	r3, [r3, #12]
 203              	.LVL15:
 204              		.loc 1 3743 3 is_stmt 1 view .LVU57
 205              		.loc 1 3743 26 is_stmt 0 view .LVU58
 206 001a 5A68     		ldr	r2, [r3, #4]
 207              		.loc 1 3743 24 view .LVU59
 208 001c 024B     		ldr	r3, .L18+4
 209              	.LVL16:
 210              		.loc 1 3743 24 view .LVU60
 211 001e 1A60     		str	r2, [r3]
 212              		.loc 1 3745 1 view .LVU61
 213 0020 7047     		bx	lr
 214              	.L19:
 215 0022 00BF     		.align	2
 216              	.L18:
 217 0024 00000000 		.word	.LANCHOR2
 218 0028 00000000 		.word	.LANCHOR3
 219              		.cfi_endproc
 220              	.LFE49:
 222              		.section	.text.prvInitialiseNewTask,"ax",%progbits
 223              		.align	1
 224              		.syntax unified
 225              		.thumb
 226              		.thumb_func
 227              		.fpu softvfp
 229              	prvInitialiseNewTask:
 230              	.LVL17:
 231              	.LFB6:
 232              		.loc 1 825 1 is_stmt 1 view -0
 233              		.cfi_startproc
ARM GAS  C:\Users\Test\AppData\Local\Temp\ccYEQElh.s 			page 5


 234              		@ args = 16, pretend = 0, frame = 0
 235              		@ frame_needed = 0, uses_anonymous_args = 0
 236              		.loc 1 825 1 is_stmt 0 view .LVU63
 237 0000 2DE9F84F 		push	{r3, r4, r5, r6, r7, r8, r9, r10, fp, lr}
 238              	.LCFI0:
 239              		.cfi_def_cfa_offset 40
 240              		.cfi_offset 3, -40
 241              		.cfi_offset 4, -36
 242              		.cfi_offset 5, -32
 243              		.cfi_offset 6, -28
 244              		.cfi_offset 7, -24
 245              		.cfi_offset 8, -20
 246              		.cfi_offset 9, -16
 247              		.cfi_offset 10, -12
 248              		.cfi_offset 11, -8
 249              		.cfi_offset 14, -4
 250 0004 8046     		mov	r8, r0
 251 0006 0D46     		mov	r5, r1
 252 0008 1746     		mov	r7, r2
 253 000a 9946     		mov	r9, r3
 254 000c 0A9E     		ldr	r6, [sp, #40]
 255 000e DDF82CA0 		ldr	r10, [sp, #44]
 256 0012 0C9C     		ldr	r4, [sp, #48]
 257              		.loc 1 826 1 is_stmt 1 view .LVU64
 258              		.loc 1 827 1 view .LVU65
 259              		.loc 1 847 3 view .LVU66
 260              		.loc 1 847 12 is_stmt 0 view .LVU67
 261 0014 9200     		lsls	r2, r2, #2
 262              	.LVL18:
 263              		.loc 1 847 12 view .LVU68
 264 0016 A521     		movs	r1, #165
 265              	.LVL19:
 266              		.loc 1 847 12 view .LVU69
 267 0018 206B     		ldr	r0, [r4, #48]
 268              	.LVL20:
 269              		.loc 1 847 12 view .LVU70
 270 001a 204B     		ldr	r3, .L28
 271              	.LVL21:
 272              		.loc 1 847 12 view .LVU71
 273 001c 9847     		blx	r3
 274              	.LVL22:
 275              		.loc 1 857 3 is_stmt 1 view .LVU72
 276              		.loc 1 857 26 is_stmt 0 view .LVU73
 277 001e 236B     		ldr	r3, [r4, #48]
 278              		.loc 1 857 36 view .LVU74
 279 0020 07F18042 		add	r2, r7, #1073741824
 280 0024 013A     		subs	r2, r2, #1
 281              		.loc 1 857 16 view .LVU75
 282 0026 03EB8207 		add	r7, r3, r2, lsl #2
 283              	.LVL23:
 284              		.loc 1 858 3 is_stmt 1 view .LVU76
 285              		.loc 1 858 81 is_stmt 0 view .LVU77
 286 002a 27F00707 		bic	r7, r7, #7
 287              	.LVL24:
 288              		.loc 1 861 3 is_stmt 1 view .LVU78
 289              		.loc 1 861 124 view .LVU79
 290              		.loc 1 885 2 view .LVU80
ARM GAS  C:\Users\Test\AppData\Local\Temp\ccYEQElh.s 			page 6


 291              		.loc 1 885 9 is_stmt 0 view .LVU81
 292 002e 4FF0000C 		mov	ip, #0
 293              	.LVL25:
 294              	.L21:
 295              		.loc 1 885 30 is_stmt 1 discriminator 1 view .LVU82
 296              		.loc 1 885 2 is_stmt 0 discriminator 1 view .LVU83
 297 0032 BCF10F0F 		cmp	ip, #15
 298 0036 0BD8     		bhi	.L22
 299              		.loc 1 887 3 is_stmt 1 view .LVU84
 300              		.loc 1 887 37 is_stmt 0 view .LVU85
 301 0038 15F80C20 		ldrb	r2, [r5, ip]	@ zero_extendqisi2
 302              		.loc 1 887 29 view .LVU86
 303 003c 04EB0C03 		add	r3, r4, ip
 304 0040 83F83420 		strb	r2, [r3, #52]
 305              		.loc 1 892 3 is_stmt 1 view .LVU87
 306              		.loc 1 892 13 is_stmt 0 view .LVU88
 307 0044 15F80C30 		ldrb	r3, [r5, ip]	@ zero_extendqisi2
 308              		.loc 1 892 5 view .LVU89
 309 0048 13B1     		cbz	r3, .L22
 310              		.loc 1 898 28 is_stmt 1 discriminator 2 view .LVU90
 311              		.loc 1 885 75 discriminator 2 view .LVU91
 312              		.loc 1 885 76 is_stmt 0 discriminator 2 view .LVU92
 313 004a 0CF1010C 		add	ip, ip, #1
 314              	.LVL26:
 315              		.loc 1 885 76 discriminator 2 view .LVU93
 316 004e F0E7     		b	.L21
 317              	.L22:
 318              		.loc 1 904 2 is_stmt 1 view .LVU94
 319              		.loc 1 904 54 is_stmt 0 view .LVU95
 320 0050 0023     		movs	r3, #0
 321 0052 84F84330 		strb	r3, [r4, #67]
 322              		.loc 1 908 2 is_stmt 1 view .LVU96
 323              		.loc 1 908 4 is_stmt 0 view .LVU97
 324 0056 372E     		cmp	r6, #55
 325 0058 00D9     		bls	.L24
 326              		.loc 1 910 14 view .LVU98
 327 005a 3726     		movs	r6, #55
 328              	.L24:
 329              	.LVL27:
 330              		.loc 1 914 27 is_stmt 1 view .LVU99
 331              		.loc 1 917 2 view .LVU100
 332              		.loc 1 917 23 is_stmt 0 view .LVU101
 333 005c E662     		str	r6, [r4, #44]
 334              		.loc 1 920 3 is_stmt 1 view .LVU102
 335              		.loc 1 920 28 is_stmt 0 view .LVU103
 336 005e E664     		str	r6, [r4, #76]
 337              		.loc 1 921 3 is_stmt 1 view .LVU104
 338              		.loc 1 921 27 is_stmt 0 view .LVU105
 339 0060 0025     		movs	r5, #0
 340              	.LVL28:
 341              		.loc 1 921 27 view .LVU106
 342 0062 2565     		str	r5, [r4, #80]
 343              		.loc 1 925 2 is_stmt 1 view .LVU107
 344 0064 201D     		adds	r0, r4, #4
 345 0066 DFF838B0 		ldr	fp, .L28+4
 346 006a D847     		blx	fp
 347              	.LVL29:
ARM GAS  C:\Users\Test\AppData\Local\Temp\ccYEQElh.s 			page 7


 348              		.loc 1 926 2 view .LVU108
 349 006c 04F11800 		add	r0, r4, #24
 350 0070 D847     		blx	fp
 351              	.LVL30:
 352              		.loc 1 930 2 view .LVU109
 353 0072 2461     		str	r4, [r4, #16]
 354              		.loc 1 933 2 view .LVU110
 355 0074 C6F13806 		rsb	r6, r6, #56
 356              	.LVL31:
 357              		.loc 1 933 2 is_stmt 0 view .LVU111
 358 0078 A661     		str	r6, [r4, #24]
 359              		.loc 1 934 2 is_stmt 1 view .LVU112
 360 007a 6462     		str	r4, [r4, #36]
 361              		.loc 1 961 3 view .LVU113
 362              		.loc 1 976 3 view .LVU114
 363              		.loc 1 976 29 is_stmt 0 view .LVU115
 364 007c 6565     		str	r5, [r4, #84]
 365              		.loc 1 977 3 is_stmt 1 view .LVU116
 366              		.loc 1 977 27 is_stmt 0 view .LVU117
 367 007e 84F85850 		strb	r5, [r4, #88]
 368              		.loc 1 1004 3 is_stmt 1 view .LVU118
 369              		.loc 1 1004 28 is_stmt 0 view .LVU119
 370 0082 4A46     		mov	r2, r9
 371 0084 4146     		mov	r1, r8
 372 0086 3846     		mov	r0, r7
 373 0088 064B     		ldr	r3, .L28+8
 374 008a 9847     		blx	r3
 375              	.LVL32:
 376              		.loc 1 1004 26 view .LVU120
 377 008c 2060     		str	r0, [r4]
 378              		.loc 1 1008 2 is_stmt 1 view .LVU121
 379              		.loc 1 1008 4 is_stmt 0 view .LVU122
 380 008e BAF1000F 		cmp	r10, #0
 381 0092 01D0     		beq	.L20
 382              		.loc 1 1012 3 is_stmt 1 view .LVU123
 383              		.loc 1 1012 18 is_stmt 0 view .LVU124
 384 0094 CAF80040 		str	r4, [r10]
 385              		.loc 1 1016 27 is_stmt 1 view .LVU125
 386              	.L20:
 387              		.loc 1 1018 1 is_stmt 0 view .LVU126
 388 0098 BDE8F88F 		pop	{r3, r4, r5, r6, r7, r8, r9, r10, fp, pc}
 389              	.LVL33:
 390              	.L29:
 391              		.loc 1 1018 1 view .LVU127
 392              		.align	2
 393              	.L28:
 394 009c 00000000 		.word	memset
 395 00a0 00000000 		.word	vListInitialiseItem
 396 00a4 00000000 		.word	pxPortInitialiseStack
 397              		.cfi_endproc
 398              	.LFE6:
 400              		.section	.text.prvInitialiseTaskLists,"ax",%progbits
 401              		.align	1
 402              		.syntax unified
 403              		.thumb
 404              		.thumb_func
 405              		.fpu softvfp
ARM GAS  C:\Users\Test\AppData\Local\Temp\ccYEQElh.s 			page 8


 407              	prvInitialiseTaskLists:
 408              	.LFB42:
 409              		.loc 1 3431 1 is_stmt 1 view -0
 410              		.cfi_startproc
 411              		@ args = 0, pretend = 0, frame = 0
 412              		@ frame_needed = 0, uses_anonymous_args = 0
 413 0000 70B5     		push	{r4, r5, r6, lr}
 414              	.LCFI1:
 415              		.cfi_def_cfa_offset 16
 416              		.cfi_offset 4, -16
 417              		.cfi_offset 5, -12
 418              		.cfi_offset 6, -8
 419              		.cfi_offset 14, -4
 420              		.loc 1 3432 1 view .LVU129
 421              		.loc 1 3434 2 view .LVU130
 422              	.LVL34:
 423              		.loc 1 3434 18 is_stmt 0 view .LVU131
 424 0002 0024     		movs	r4, #0
 425              		.loc 1 3434 2 view .LVU132
 426 0004 07E0     		b	.L31
 427              	.LVL35:
 428              	.L32:
 429              		.loc 1 3436 3 is_stmt 1 discriminator 3 view .LVU133
 430 0006 04EB8402 		add	r2, r4, r4, lsl #2
 431 000a 9300     		lsls	r3, r2, #2
 432 000c 0C48     		ldr	r0, .L34
 433 000e 1844     		add	r0, r0, r3
 434 0010 0C4B     		ldr	r3, .L34+4
 435 0012 9847     		blx	r3
 436              	.LVL36:
 437              		.loc 1 3434 91 discriminator 3 view .LVU134
 438              		.loc 1 3434 101 is_stmt 0 discriminator 3 view .LVU135
 439 0014 0134     		adds	r4, r4, #1
 440              	.LVL37:
 441              	.L31:
 442              		.loc 1 3434 40 is_stmt 1 discriminator 1 view .LVU136
 443              		.loc 1 3434 2 is_stmt 0 discriminator 1 view .LVU137
 444 0016 372C     		cmp	r4, #55
 445 0018 F5D9     		bls	.L32
 446              		.loc 1 3439 2 is_stmt 1 view .LVU138
 447 001a 0B4E     		ldr	r6, .L34+8
 448 001c 3046     		mov	r0, r6
 449 001e 094C     		ldr	r4, .L34+4
 450              	.LVL38:
 451              		.loc 1 3439 2 is_stmt 0 view .LVU139
 452 0020 A047     		blx	r4
 453              	.LVL39:
 454              		.loc 1 3440 2 is_stmt 1 view .LVU140
 455 0022 0A4D     		ldr	r5, .L34+12
 456 0024 2846     		mov	r0, r5
 457 0026 A047     		blx	r4
 458              	.LVL40:
 459              		.loc 1 3441 2 view .LVU141
 460 0028 0948     		ldr	r0, .L34+16
 461 002a A047     		blx	r4
 462              	.LVL41:
 463              		.loc 1 3445 3 view .LVU142
ARM GAS  C:\Users\Test\AppData\Local\Temp\ccYEQElh.s 			page 9


 464 002c 0948     		ldr	r0, .L34+20
 465 002e A047     		blx	r4
 466              	.LVL42:
 467              		.loc 1 3451 3 view .LVU143
 468 0030 0948     		ldr	r0, .L34+24
 469 0032 A047     		blx	r4
 470              	.LVL43:
 471              		.loc 1 3457 2 view .LVU144
 472              		.loc 1 3457 20 is_stmt 0 view .LVU145
 473 0034 094B     		ldr	r3, .L34+28
 474 0036 1E60     		str	r6, [r3]
 475              		.loc 1 3458 2 is_stmt 1 view .LVU146
 476              		.loc 1 3458 28 is_stmt 0 view .LVU147
 477 0038 094B     		ldr	r3, .L34+32
 478 003a 1D60     		str	r5, [r3]
 479              		.loc 1 3459 1 view .LVU148
 480 003c 70BD     		pop	{r4, r5, r6, pc}
 481              	.L35:
 482 003e 00BF     		.align	2
 483              	.L34:
 484 0040 00000000 		.word	.LANCHOR4
 485 0044 00000000 		.word	vListInitialise
 486 0048 00000000 		.word	.LANCHOR5
 487 004c 00000000 		.word	.LANCHOR6
 488 0050 00000000 		.word	.LANCHOR1
 489 0054 00000000 		.word	.LANCHOR7
 490 0058 00000000 		.word	.LANCHOR0
 491 005c 00000000 		.word	.LANCHOR2
 492 0060 00000000 		.word	.LANCHOR8
 493              		.cfi_endproc
 494              	.LFE42:
 496              		.section	.text.prvAddNewTaskToReadyList,"ax",%progbits
 497              		.align	1
 498              		.syntax unified
 499              		.thumb
 500              		.thumb_func
 501              		.fpu softvfp
 503              	prvAddNewTaskToReadyList:
 504              	.LVL44:
 505              	.LFB7:
 506              		.loc 1 1022 1 is_stmt 1 view -0
 507              		.cfi_startproc
 508              		@ args = 0, pretend = 0, frame = 0
 509              		@ frame_needed = 0, uses_anonymous_args = 0
 510              		.loc 1 1022 1 is_stmt 0 view .LVU150
 511 0000 10B5     		push	{r4, lr}
 512              	.LCFI2:
 513              		.cfi_def_cfa_offset 8
 514              		.cfi_offset 4, -8
 515              		.cfi_offset 14, -4
 516 0002 0446     		mov	r4, r0
 517              		.loc 1 1025 2 is_stmt 1 view .LVU151
 518 0004 234B     		ldr	r3, .L44
 519 0006 9847     		blx	r3
 520              	.LVL45:
 521              		.loc 1 1027 3 view .LVU152
 522              		.loc 1 1027 25 is_stmt 0 view .LVU153
ARM GAS  C:\Users\Test\AppData\Local\Temp\ccYEQElh.s 			page 10


 523 0008 234A     		ldr	r2, .L44+4
 524 000a 1368     		ldr	r3, [r2]
 525 000c 0133     		adds	r3, r3, #1
 526 000e 1360     		str	r3, [r2]
 527              		.loc 1 1028 3 is_stmt 1 view .LVU154
 528              		.loc 1 1028 20 is_stmt 0 view .LVU155
 529 0010 224B     		ldr	r3, .L44+8
 530 0012 1B68     		ldr	r3, [r3]
 531              		.loc 1 1028 5 view .LVU156
 532 0014 5BB1     		cbz	r3, .L42
 533              		.loc 1 1051 4 is_stmt 1 view .LVU157
 534              		.loc 1 1051 26 is_stmt 0 view .LVU158
 535 0016 224B     		ldr	r3, .L44+12
 536 0018 1B68     		ldr	r3, [r3]
 537              		.loc 1 1051 6 view .LVU159
 538 001a 6BB9     		cbnz	r3, .L38
 539              		.loc 1 1053 5 is_stmt 1 view .LVU160
 540              		.loc 1 1053 21 is_stmt 0 view .LVU161
 541 001c 1F4B     		ldr	r3, .L44+8
 542 001e 1B68     		ldr	r3, [r3]
 543 0020 DA6A     		ldr	r2, [r3, #44]
 544              		.loc 1 1053 45 view .LVU162
 545 0022 E36A     		ldr	r3, [r4, #44]
 546              		.loc 1 1053 7 view .LVU163
 547 0024 9A42     		cmp	r2, r3
 548 0026 07D8     		bhi	.L38
 549              		.loc 1 1055 6 is_stmt 1 view .LVU164
 550              		.loc 1 1055 19 is_stmt 0 view .LVU165
 551 0028 1C4B     		ldr	r3, .L44+8
 552 002a 1C60     		str	r4, [r3]
 553 002c 04E0     		b	.L38
 554              	.L42:
 555              		.loc 1 1032 4 is_stmt 1 view .LVU166
 556              		.loc 1 1032 17 is_stmt 0 view .LVU167
 557 002e 1B4B     		ldr	r3, .L44+8
 558 0030 1C60     		str	r4, [r3]
 559              		.loc 1 1034 4 is_stmt 1 view .LVU168
 560              		.loc 1 1034 31 is_stmt 0 view .LVU169
 561 0032 1368     		ldr	r3, [r2]
 562              		.loc 1 1034 6 view .LVU170
 563 0034 012B     		cmp	r3, #1
 564 0036 29D0     		beq	.L43
 565              	.L38:
 566              		.loc 1 1064 29 is_stmt 1 view .LVU171
 567              		.loc 1 1068 3 view .LVU172
 568              		.loc 1 1068 15 is_stmt 0 view .LVU173
 569 0038 1A4A     		ldr	r2, .L44+16
 570 003a 1368     		ldr	r3, [r2]
 571 003c 0133     		adds	r3, r3, #1
 572 003e 1360     		str	r3, [r2]
 573              		.loc 1 1073 4 is_stmt 1 view .LVU174
 574              		.loc 1 1073 26 is_stmt 0 view .LVU175
 575 0040 6364     		str	r3, [r4, #68]
 576              		.loc 1 1076 31 is_stmt 1 view .LVU176
 577              		.loc 1 1078 3 view .LVU177
 578              		.loc 1 1078 3 view .LVU178
 579 0042 E06A     		ldr	r0, [r4, #44]
ARM GAS  C:\Users\Test\AppData\Local\Temp\ccYEQElh.s 			page 11


 580 0044 184B     		ldr	r3, .L44+20
 581 0046 1B68     		ldr	r3, [r3]
 582 0048 9842     		cmp	r0, r3
 583 004a 01D9     		bls	.L39
 584              		.loc 1 1078 3 discriminator 1 view .LVU179
 585 004c 164B     		ldr	r3, .L44+20
 586 004e 1860     		str	r0, [r3]
 587              	.L39:
 588              		.loc 1 1078 3 discriminator 3 view .LVU180
 589              		.loc 1 1078 3 discriminator 3 view .LVU181
 590 0050 00EB8000 		add	r0, r0, r0, lsl #2
 591 0054 211D     		adds	r1, r4, #4
 592 0056 154B     		ldr	r3, .L44+24
 593 0058 03EB8000 		add	r0, r3, r0, lsl #2
 594 005c 144B     		ldr	r3, .L44+28
 595 005e 9847     		blx	r3
 596              	.LVL46:
 597              		.loc 1 1078 36 discriminator 3 view .LVU182
 598              		.loc 1 1080 3 discriminator 3 view .LVU183
 599              		.loc 1 1082 2 discriminator 3 view .LVU184
 600 0060 144B     		ldr	r3, .L44+32
 601 0062 9847     		blx	r3
 602              	.LVL47:
 603              		.loc 1 1084 2 discriminator 3 view .LVU185
 604              		.loc 1 1084 24 is_stmt 0 discriminator 3 view .LVU186
 605 0064 0E4B     		ldr	r3, .L44+12
 606 0066 1B68     		ldr	r3, [r3]
 607              		.loc 1 1084 4 discriminator 3 view .LVU187
 608 0068 7BB1     		cbz	r3, .L36
 609              		.loc 1 1088 3 is_stmt 1 view .LVU188
 610              		.loc 1 1088 19 is_stmt 0 view .LVU189
 611 006a 0C4B     		ldr	r3, .L44+8
 612 006c 1B68     		ldr	r3, [r3]
 613 006e DA6A     		ldr	r2, [r3, #44]
 614              		.loc 1 1088 42 view .LVU190
 615 0070 E36A     		ldr	r3, [r4, #44]
 616              		.loc 1 1088 5 view .LVU191
 617 0072 9A42     		cmp	r2, r3
 618 0074 09D2     		bcs	.L36
 619              		.loc 1 1090 4 is_stmt 1 view .LVU192
 620 0076 4FF0E023 		mov	r3, #-536813568
 621 007a 4FF08052 		mov	r2, #268435456
 622 007e C3F8042D 		str	r2, [r3, #3332]
 623              		.loc 1 1090 4 view .LVU193
 624              		.syntax unified
 625              	@ 1090 "Middlewares/Third_Party/FreeRTOS/Source/tasks.c" 1
 626 0082 BFF34F8F 		dsb
 627              	@ 0 "" 2
 628              		.loc 1 1090 4 view .LVU194
 629              	@ 1090 "Middlewares/Third_Party/FreeRTOS/Source/tasks.c" 1
 630 0086 BFF36F8F 		isb
 631              	@ 0 "" 2
 632              		.loc 1 1090 35 view .LVU195
 633              		.loc 1 1099 27 view .LVU196
 634              		.thumb
 635              		.syntax unified
 636              	.L36:
ARM GAS  C:\Users\Test\AppData\Local\Temp\ccYEQElh.s 			page 12


 637              		.loc 1 1101 1 is_stmt 0 view .LVU197
 638 008a 10BD     		pop	{r4, pc}
 639              	.LVL48:
 640              	.L43:
 641              		.loc 1 1039 5 is_stmt 1 view .LVU198
 642 008c 0A4B     		ldr	r3, .L44+36
 643 008e 9847     		blx	r3
 644              	.LVL49:
 645 0090 D2E7     		b	.L38
 646              	.L45:
 647 0092 00BF     		.align	2
 648              	.L44:
 649 0094 00000000 		.word	vPortEnterCritical
 650 0098 00000000 		.word	.LANCHOR9
 651 009c 00000000 		.word	.LANCHOR10
 652 00a0 00000000 		.word	.LANCHOR11
 653 00a4 00000000 		.word	.LANCHOR12
 654 00a8 00000000 		.word	.LANCHOR13
 655 00ac 00000000 		.word	.LANCHOR4
 656 00b0 00000000 		.word	vListInsertEnd
 657 00b4 00000000 		.word	vPortExitCritical
 658 00b8 00000000 		.word	prvInitialiseTaskLists
 659              		.cfi_endproc
 660              	.LFE7:
 662              		.section	.text.prvDeleteTCB,"ax",%progbits
 663              		.align	1
 664              		.syntax unified
 665              		.thumb
 666              		.thumb_func
 667              		.fpu softvfp
 669              	prvDeleteTCB:
 670              	.LVL50:
 671              	.LFB48:
 672              		.loc 1 3671 2 view -0
 673              		.cfi_startproc
 674              		@ args = 0, pretend = 0, frame = 0
 675              		@ frame_needed = 0, uses_anonymous_args = 0
 676              		.loc 1 3671 2 is_stmt 0 view .LVU200
 677 0000 38B5     		push	{r3, r4, r5, lr}
 678              	.LCFI3:
 679              		.cfi_def_cfa_offset 16
 680              		.cfi_offset 3, -16
 681              		.cfi_offset 4, -12
 682              		.cfi_offset 5, -8
 683              		.cfi_offset 14, -4
 684 0002 0446     		mov	r4, r0
 685              		.loc 1 3675 3 is_stmt 1 view .LVU201
 686              		.loc 1 3697 4 view .LVU202
 687              		.loc 1 3697 13 is_stmt 0 view .LVU203
 688 0004 90F85930 		ldrb	r3, [r0, #89]	@ zero_extendqisi2
 689              		.loc 1 3697 6 view .LVU204
 690 0008 63B1     		cbz	r3, .L52
 691              		.loc 1 3704 9 is_stmt 1 view .LVU205
 692              		.loc 1 3704 11 is_stmt 0 view .LVU206
 693 000a 012B     		cmp	r3, #1
 694 000c 10D0     		beq	.L53
 695              		.loc 1 3714 5 is_stmt 1 view .LVU207
ARM GAS  C:\Users\Test\AppData\Local\Temp\ccYEQElh.s 			page 13


 696 000e 022B     		cmp	r3, #2
 697 0010 0DD0     		beq	.L46
 698              		.loc 1 3714 5 view .LVU208
 699              	.LBB115:
 700              	.LBI115:
 701              		.loc 2 191 30 view .LVU209
 702              	.LBB116:
 703              		.loc 2 193 1 view .LVU210
 704              		.loc 2 195 2 view .LVU211
 705              		.syntax unified
 706              	@ 195 "Middlewares/Third_Party/FreeRTOS/Source/portable/GCC/ARM_CM3/portmacro.h" 1
 707 0012 4FF05003 			mov r3, #80												
 708 0016 83F31188 		msr basepri, r3											
 709 001a BFF36F8F 		isb														
 710 001e BFF34F8F 		dsb														
 711              	
 712              	@ 0 "" 2
 713              	.LVL51:
 714              		.thumb
 715              		.syntax unified
 716              	.L50:
 717              		.loc 2 195 2 is_stmt 0 view .LVU212
 718              	.LBE116:
 719              	.LBE115:
 720              		.loc 1 3714 5 is_stmt 1 discriminator 1 view .LVU213
 721              		.loc 1 3714 5 discriminator 1 view .LVU214
 722              		.loc 1 3714 5 discriminator 1 view .LVU215
 723 0022 FEE7     		b	.L50
 724              	.L52:
 725              		.loc 1 3701 5 view .LVU216
 726 0024 006B     		ldr	r0, [r0, #48]
 727              	.LVL52:
 728              		.loc 1 3701 5 is_stmt 0 view .LVU217
 729 0026 044D     		ldr	r5, .L54
 730 0028 A847     		blx	r5
 731              	.LVL53:
 732              		.loc 1 3702 5 is_stmt 1 view .LVU218
 733 002a 2046     		mov	r0, r4
 734 002c A847     		blx	r5
 735              	.LVL54:
 736              	.L46:
 737              		.loc 1 3719 2 is_stmt 0 view .LVU219
 738 002e 38BD     		pop	{r3, r4, r5, pc}
 739              	.LVL55:
 740              	.L53:
 741              		.loc 1 3708 5 is_stmt 1 view .LVU220
 742 0030 014B     		ldr	r3, .L54
 743 0032 9847     		blx	r3
 744              	.LVL56:
 745              		.loc 1 3708 5 is_stmt 0 view .LVU221
 746 0034 FBE7     		b	.L46
 747              	.L55:
 748 0036 00BF     		.align	2
 749              	.L54:
 750 0038 00000000 		.word	vPortFree
 751              		.cfi_endproc
 752              	.LFE48:
ARM GAS  C:\Users\Test\AppData\Local\Temp\ccYEQElh.s 			page 14


 754              		.section	.text.prvCheckTasksWaitingTermination,"ax",%progbits
 755              		.align	1
 756              		.syntax unified
 757              		.thumb
 758              		.thumb_func
 759              		.fpu softvfp
 761              	prvCheckTasksWaitingTermination:
 762              	.LFB43:
 763              		.loc 1 3463 1 is_stmt 1 view -0
 764              		.cfi_startproc
 765              		@ args = 0, pretend = 0, frame = 0
 766              		@ frame_needed = 0, uses_anonymous_args = 0
 767              	.LBB117:
 768              		.loc 1 3469 3 view .LVU223
 769              		.loc 1 3473 3 view .LVU224
 770              		.loc 1 3473 8 view .LVU225
 771              		.loc 1 3473 39 is_stmt 0 view .LVU226
 772 0000 0F4B     		ldr	r3, .L63
 773 0002 1B68     		ldr	r3, [r3]
 774              		.loc 1 3473 8 view .LVU227
 775 0004 D3B1     		cbz	r3, .L62
 776              	.LBE117:
 777              		.loc 1 3463 1 view .LVU228
 778 0006 10B5     		push	{r4, lr}
 779              	.LCFI4:
 780              		.cfi_def_cfa_offset 8
 781              		.cfi_offset 4, -8
 782              		.cfi_offset 14, -4
 783              	.L58:
 784              	.LBB118:
 785              		.loc 1 3475 4 is_stmt 1 view .LVU229
 786 0008 0E4B     		ldr	r3, .L63+4
 787 000a 9847     		blx	r3
 788              	.LVL57:
 789              		.loc 1 3477 5 view .LVU230
 790              		.loc 1 3477 25 is_stmt 0 view .LVU231
 791 000c 0E4B     		ldr	r3, .L63+8
 792 000e DB68     		ldr	r3, [r3, #12]
 793              		.loc 1 3477 11 view .LVU232
 794 0010 DC68     		ldr	r4, [r3, #12]
 795              	.LVL58:
 796              		.loc 1 3478 5 is_stmt 1 view .LVU233
 797              		.loc 1 3478 14 is_stmt 0 view .LVU234
 798 0012 201D     		adds	r0, r4, #4
 799 0014 0D4B     		ldr	r3, .L63+12
 800 0016 9847     		blx	r3
 801              	.LVL59:
 802              		.loc 1 3479 5 is_stmt 1 view .LVU235
 803 0018 0D4A     		ldr	r2, .L63+16
 804 001a 1368     		ldr	r3, [r2]
 805 001c 013B     		subs	r3, r3, #1
 806 001e 1360     		str	r3, [r2]
 807              		.loc 1 3480 5 view .LVU236
 808 0020 074A     		ldr	r2, .L63
 809 0022 1368     		ldr	r3, [r2]
 810 0024 013B     		subs	r3, r3, #1
 811 0026 1360     		str	r3, [r2]
ARM GAS  C:\Users\Test\AppData\Local\Temp\ccYEQElh.s 			page 15


 812              		.loc 1 3482 4 view .LVU237
 813 0028 0A4B     		ldr	r3, .L63+20
 814 002a 9847     		blx	r3
 815              	.LVL60:
 816              		.loc 1 3484 4 view .LVU238
 817 002c 2046     		mov	r0, r4
 818 002e 0A4B     		ldr	r3, .L63+24
 819 0030 9847     		blx	r3
 820              	.LVL61:
 821              		.loc 1 3473 8 view .LVU239
 822              		.loc 1 3473 39 is_stmt 0 view .LVU240
 823 0032 034B     		ldr	r3, .L63
 824 0034 1B68     		ldr	r3, [r3]
 825              		.loc 1 3473 8 view .LVU241
 826 0036 002B     		cmp	r3, #0
 827 0038 E6D1     		bne	.L58
 828              	.LBE118:
 829              		.loc 1 3488 1 view .LVU242
 830 003a 10BD     		pop	{r4, pc}
 831              	.LVL62:
 832              	.L62:
 833              	.LCFI5:
 834              		.cfi_def_cfa_offset 0
 835              		.cfi_restore 4
 836              		.cfi_restore 14
 837              		.loc 1 3488 1 view .LVU243
 838 003c 7047     		bx	lr
 839              	.L64:
 840 003e 00BF     		.align	2
 841              	.L63:
 842 0040 00000000 		.word	.LANCHOR14
 843 0044 00000000 		.word	vPortEnterCritical
 844 0048 00000000 		.word	.LANCHOR7
 845 004c 00000000 		.word	uxListRemove
 846 0050 00000000 		.word	.LANCHOR9
 847 0054 00000000 		.word	vPortExitCritical
 848 0058 00000000 		.word	prvDeleteTCB
 849              		.cfi_endproc
 850              	.LFE43:
 852              		.section	.text.prvIdleTask,"ax",%progbits
 853              		.align	1
 854              		.syntax unified
 855              		.thumb
 856              		.thumb_func
 857              		.fpu softvfp
 859              	prvIdleTask:
 860              	.LFB41:
 861              		.loc 1 3219 1 is_stmt 1 view -0
 862              		.cfi_startproc
 863              		@ Volatile: function does not return.
 864              		@ args = 0, pretend = 0, frame = 0
 865              		@ frame_needed = 0, uses_anonymous_args = 0
 866              	.LVL63:
 867              		.loc 1 3219 1 is_stmt 0 view .LVU245
 868 0000 08B5     		push	{r3, lr}
 869              	.LCFI6:
 870              		.cfi_def_cfa_offset 8
ARM GAS  C:\Users\Test\AppData\Local\Temp\ccYEQElh.s 			page 16


 871              		.cfi_offset 3, -8
 872              		.cfi_offset 14, -4
 873              	.LVL64:
 874              	.L66:
 875              		.loc 1 3221 2 is_stmt 1 view .LVU246
 876              		.loc 1 3229 35 view .LVU247
 877              		.loc 1 3231 2 view .LVU248
 878              		.loc 1 3235 3 view .LVU249
 879 0002 084B     		ldr	r3, .L69
 880 0004 9847     		blx	r3
 881              	.LVL65:
 882              		.loc 1 3258 4 view .LVU250
 883              		.loc 1 3258 8 is_stmt 0 view .LVU251
 884 0006 084B     		ldr	r3, .L69+4
 885 0008 1B68     		ldr	r3, [r3]
 886              		.loc 1 3258 6 view .LVU252
 887 000a 012B     		cmp	r3, #1
 888 000c F9D9     		bls	.L66
 889              		.loc 1 3260 5 is_stmt 1 view .LVU253
 890 000e 4FF0E023 		mov	r3, #-536813568
 891 0012 4FF08052 		mov	r2, #268435456
 892 0016 C3F8042D 		str	r2, [r3, #3332]
 893              		.loc 1 3260 5 view .LVU254
 894              		.syntax unified
 895              	@ 3260 "Middlewares/Third_Party/FreeRTOS/Source/tasks.c" 1
 896 001a BFF34F8F 		dsb
 897              	@ 0 "" 2
 898              		.loc 1 3260 5 view .LVU255
 899              	@ 3260 "Middlewares/Third_Party/FreeRTOS/Source/tasks.c" 1
 900 001e BFF36F8F 		isb
 901              	@ 0 "" 2
 902              		.loc 1 3260 16 view .LVU256
 903              		.thumb
 904              		.syntax unified
 905 0022 EEE7     		b	.L66
 906              	.L70:
 907              		.align	2
 908              	.L69:
 909 0024 00000000 		.word	prvCheckTasksWaitingTermination
 910 0028 00000000 		.word	.LANCHOR4
 911              		.cfi_endproc
 912              	.LFE41:
 914              		.section	.text.prvAddCurrentTaskToDelayedList,"ax",%progbits
 915              		.align	1
 916              		.syntax unified
 917              		.thumb
 918              		.thumb_func
 919              		.fpu softvfp
 921              	prvAddCurrentTaskToDelayedList:
 922              	.LVL66:
 923              	.LFB63:
 924              		.loc 1 4907 1 view -0
 925              		.cfi_startproc
 926              		@ args = 0, pretend = 0, frame = 0
 927              		@ frame_needed = 0, uses_anonymous_args = 0
 928              		.loc 1 4907 1 is_stmt 0 view .LVU258
 929 0000 70B5     		push	{r4, r5, r6, lr}
ARM GAS  C:\Users\Test\AppData\Local\Temp\ccYEQElh.s 			page 17


 930              	.LCFI7:
 931              		.cfi_def_cfa_offset 16
 932              		.cfi_offset 4, -16
 933              		.cfi_offset 5, -12
 934              		.cfi_offset 6, -8
 935              		.cfi_offset 14, -4
 936 0002 0446     		mov	r4, r0
 937 0004 0D46     		mov	r5, r1
 938              		.loc 1 4908 1 is_stmt 1 view .LVU259
 939              		.loc 1 4909 1 view .LVU260
 940              		.loc 1 4909 18 is_stmt 0 view .LVU261
 941 0006 174B     		ldr	r3, .L77
 942 0008 1E68     		ldr	r6, [r3]
 943              	.LVL67:
 944              		.loc 1 4922 2 is_stmt 1 view .LVU262
 945              		.loc 1 4922 35 is_stmt 0 view .LVU263
 946 000a 174B     		ldr	r3, .L77+4
 947 000c 1868     		ldr	r0, [r3]
 948              	.LVL68:
 949              		.loc 1 4922 6 view .LVU264
 950 000e 0430     		adds	r0, r0, #4
 951 0010 164B     		ldr	r3, .L77+8
 952 0012 9847     		blx	r3
 953              	.LVL69:
 954              		.loc 1 4930 27 is_stmt 1 view .LVU265
 955              		.loc 1 4935 3 view .LVU266
 956              		.loc 1 4935 5 is_stmt 0 view .LVU267
 957 0014 B4F1FF3F 		cmp	r4, #-1
 958 0018 0DD0     		beq	.L76
 959              	.L72:
 960              		.loc 1 4947 4 is_stmt 1 view .LVU268
 961              		.loc 1 4947 16 is_stmt 0 view .LVU269
 962 001a 3444     		add	r4, r4, r6
 963              	.LVL70:
 964              		.loc 1 4950 4 is_stmt 1 view .LVU270
 965 001c 124B     		ldr	r3, .L77+4
 966 001e 1B68     		ldr	r3, [r3]
 967 0020 5C60     		str	r4, [r3, #4]
 968              		.loc 1 4952 4 view .LVU271
 969              		.loc 1 4952 6 is_stmt 0 view .LVU272
 970 0022 A642     		cmp	r6, r4
 971 0024 10D9     		bls	.L74
 972              		.loc 1 4956 5 is_stmt 1 view .LVU273
 973 0026 124B     		ldr	r3, .L77+12
 974 0028 1868     		ldr	r0, [r3]
 975              		.loc 1 4956 60 is_stmt 0 view .LVU274
 976 002a 0F4B     		ldr	r3, .L77+4
 977 002c 1968     		ldr	r1, [r3]
 978              		.loc 1 4956 5 view .LVU275
 979 002e 0431     		adds	r1, r1, #4
 980 0030 104B     		ldr	r3, .L77+16
 981 0032 9847     		blx	r3
 982              	.LVL71:
 983              	.L71:
 984              		.loc 1 5015 1 view .LVU276
 985 0034 70BD     		pop	{r4, r5, r6, pc}
 986              	.LVL72:
ARM GAS  C:\Users\Test\AppData\Local\Temp\ccYEQElh.s 			page 18


 987              	.L76:
 988              		.loc 1 4935 41 discriminator 1 view .LVU277
 989 0036 002D     		cmp	r5, #0
 990 0038 EFD0     		beq	.L72
 991              		.loc 1 4940 4 is_stmt 1 view .LVU278
 992              		.loc 1 4940 56 is_stmt 0 view .LVU279
 993 003a 0B4B     		ldr	r3, .L77+4
 994 003c 1968     		ldr	r1, [r3]
 995              		.loc 1 4940 4 view .LVU280
 996 003e 0431     		adds	r1, r1, #4
 997 0040 0D48     		ldr	r0, .L77+20
 998 0042 0E4B     		ldr	r3, .L77+24
 999 0044 9847     		blx	r3
 1000              	.LVL73:
 1001 0046 F5E7     		b	.L71
 1002              	.LVL74:
 1003              	.L74:
 1004              		.loc 1 4962 5 is_stmt 1 view .LVU281
 1005 0048 0D4B     		ldr	r3, .L77+28
 1006 004a 1868     		ldr	r0, [r3]
 1007              		.loc 1 4962 52 is_stmt 0 view .LVU282
 1008 004c 064B     		ldr	r3, .L77+4
 1009 004e 1968     		ldr	r1, [r3]
 1010              		.loc 1 4962 5 view .LVU283
 1011 0050 0431     		adds	r1, r1, #4
 1012 0052 084B     		ldr	r3, .L77+16
 1013 0054 9847     		blx	r3
 1014              	.LVL75:
 1015              		.loc 1 4967 5 is_stmt 1 view .LVU284
 1016              		.loc 1 4967 21 is_stmt 0 view .LVU285
 1017 0056 0B4B     		ldr	r3, .L77+32
 1018 0058 1B68     		ldr	r3, [r3]
 1019              		.loc 1 4967 7 view .LVU286
 1020 005a A342     		cmp	r3, r4
 1021 005c EAD9     		bls	.L71
 1022              		.loc 1 4969 6 is_stmt 1 view .LVU287
 1023              		.loc 1 4969 27 is_stmt 0 view .LVU288
 1024 005e 094B     		ldr	r3, .L77+32
 1025 0060 1C60     		str	r4, [r3]
 1026              		.loc 1 4973 30 is_stmt 1 view .LVU289
 1027              		.loc 1 5015 1 is_stmt 0 view .LVU290
 1028 0062 E7E7     		b	.L71
 1029              	.L78:
 1030              		.align	2
 1031              	.L77:
 1032 0064 00000000 		.word	.LANCHOR15
 1033 0068 00000000 		.word	.LANCHOR10
 1034 006c 00000000 		.word	uxListRemove
 1035 0070 00000000 		.word	.LANCHOR8
 1036 0074 00000000 		.word	vListInsert
 1037 0078 00000000 		.word	.LANCHOR0
 1038 007c 00000000 		.word	vListInsertEnd
 1039 0080 00000000 		.word	.LANCHOR2
 1040 0084 00000000 		.word	.LANCHOR3
 1041              		.cfi_endproc
 1042              	.LFE63:
 1044              		.section	.text.xTaskCreateStatic,"ax",%progbits
ARM GAS  C:\Users\Test\AppData\Local\Temp\ccYEQElh.s 			page 19


 1045              		.align	1
 1046              		.global	xTaskCreateStatic
 1047              		.syntax unified
 1048              		.thumb
 1049              		.thumb_func
 1050              		.fpu softvfp
 1052              	xTaskCreateStatic:
 1053              	.LVL76:
 1054              	.LFB4:
 1055              		.loc 1 582 2 is_stmt 1 view -0
 1056              		.cfi_startproc
 1057              		@ args = 12, pretend = 0, frame = 8
 1058              		@ frame_needed = 0, uses_anonymous_args = 0
 1059              		.loc 1 582 2 is_stmt 0 view .LVU292
 1060 0000 30B5     		push	{r4, r5, lr}
 1061              	.LCFI8:
 1062              		.cfi_def_cfa_offset 12
 1063              		.cfi_offset 4, -12
 1064              		.cfi_offset 5, -8
 1065              		.cfi_offset 14, -4
 1066 0002 87B0     		sub	sp, sp, #28
 1067              	.LCFI9:
 1068              		.cfi_def_cfa_offset 40
 1069 0004 0B9C     		ldr	r4, [sp, #44]
 1070              		.loc 1 583 2 is_stmt 1 view .LVU293
 1071              		.loc 1 584 2 view .LVU294
 1072              		.loc 1 586 3 view .LVU295
 1073 0006 7CB1     		cbz	r4, .L87
 1074              		.loc 1 586 41 discriminator 2 view .LVU296
 1075              		.loc 1 587 3 discriminator 2 view .LVU297
 1076 0008 0C9D     		ldr	r5, [sp, #48]
 1077 000a B5B1     		cbz	r5, .L88
 1078              		.loc 1 587 39 discriminator 2 view .LVU298
 1079              	.LBB119:
 1080              		.loc 1 594 4 discriminator 2 view .LVU299
 1081              		.loc 1 594 20 is_stmt 0 discriminator 2 view .LVU300
 1082 000c 5C25     		movs	r5, #92
 1083 000e 0495     		str	r5, [sp, #16]
 1084              		.loc 1 595 4 is_stmt 1 discriminator 2 view .LVU301
 1085 0010 049D     		ldr	r5, [sp, #16]
 1086 0012 5C2D     		cmp	r5, #92
 1087 0014 1AD0     		beq	.L84
 1088              		.loc 1 595 4 view .LVU302
 1089              	.LBB120:
 1090              	.LBI120:
 1091              		.loc 2 191 30 view .LVU303
 1092              	.LBB121:
 1093              		.loc 2 193 1 view .LVU304
 1094              		.loc 2 195 2 view .LVU305
 1095              		.syntax unified
 1096              	@ 195 "Middlewares/Third_Party/FreeRTOS/Source/portable/GCC/ARM_CM3/portmacro.h" 1
 1097 0016 4FF05003 			mov r3, #80												
 1098 001a 83F31188 		msr basepri, r3											
 1099 001e BFF36F8F 		isb														
 1100 0022 BFF34F8F 		dsb														
 1101              	
 1102              	@ 0 "" 2
ARM GAS  C:\Users\Test\AppData\Local\Temp\ccYEQElh.s 			page 20


 1103              	.LVL77:
 1104              		.thumb
 1105              		.syntax unified
 1106              	.L85:
 1107              		.loc 2 195 2 is_stmt 0 view .LVU306
 1108              	.LBE121:
 1109              	.LBE120:
 1110              		.loc 1 595 4 is_stmt 1 discriminator 3 view .LVU307
 1111              		.loc 1 595 4 discriminator 3 view .LVU308
 1112              		.loc 1 595 4 discriminator 3 view .LVU309
 1113 0026 FEE7     		b	.L85
 1114              	.LVL78:
 1115              	.L87:
 1116              		.loc 1 595 4 is_stmt 0 discriminator 3 view .LVU310
 1117              	.LBE119:
 1118              		.loc 1 586 3 is_stmt 1 view .LVU311
 1119              	.LBB122:
 1120              	.LBI122:
 1121              		.loc 2 191 30 view .LVU312
 1122              	.LBB123:
 1123              		.loc 2 193 1 view .LVU313
 1124              		.loc 2 195 2 view .LVU314
 1125              		.syntax unified
 1126              	@ 195 "Middlewares/Third_Party/FreeRTOS/Source/portable/GCC/ARM_CM3/portmacro.h" 1
 1127 0028 4FF05003 			mov r3, #80												
 1128 002c 83F31188 		msr basepri, r3											
 1129 0030 BFF36F8F 		isb														
 1130 0034 BFF34F8F 		dsb														
 1131              	
 1132              	@ 0 "" 2
 1133              	.LVL79:
 1134              		.thumb
 1135              		.syntax unified
 1136              	.L81:
 1137              		.loc 2 195 2 is_stmt 0 view .LVU315
 1138              	.LBE123:
 1139              	.LBE122:
 1140              		.loc 1 586 3 is_stmt 1 discriminator 1 view .LVU316
 1141              		.loc 1 586 3 discriminator 1 view .LVU317
 1142              		.loc 1 586 3 discriminator 1 view .LVU318
 1143 0038 FEE7     		b	.L81
 1144              	.LVL80:
 1145              	.L88:
 1146              		.loc 1 587 3 view .LVU319
 1147              	.LBB124:
 1148              	.LBI124:
 1149              		.loc 2 191 30 view .LVU320
 1150              	.LBB125:
 1151              		.loc 2 193 1 view .LVU321
 1152              		.loc 2 195 2 view .LVU322
 1153              		.syntax unified
 1154              	@ 195 "Middlewares/Third_Party/FreeRTOS/Source/portable/GCC/ARM_CM3/portmacro.h" 1
 1155 003a 4FF05003 			mov r3, #80												
 1156 003e 83F31188 		msr basepri, r3											
 1157 0042 BFF36F8F 		isb														
 1158 0046 BFF34F8F 		dsb														
 1159              	
ARM GAS  C:\Users\Test\AppData\Local\Temp\ccYEQElh.s 			page 21


 1160              	@ 0 "" 2
 1161              	.LVL81:
 1162              		.thumb
 1163              		.syntax unified
 1164              	.L83:
 1165              		.loc 2 195 2 is_stmt 0 view .LVU323
 1166              	.LBE125:
 1167              	.LBE124:
 1168              		.loc 1 587 3 is_stmt 1 discriminator 2 view .LVU324
 1169              		.loc 1 587 3 discriminator 2 view .LVU325
 1170              		.loc 1 587 3 discriminator 2 view .LVU326
 1171 004a FEE7     		b	.L83
 1172              	.LVL82:
 1173              	.L84:
 1174              	.LBB126:
 1175              		.loc 1 595 44 view .LVU327
 1176              	.LBE126:
 1177              		.loc 1 600 3 view .LVU328
 1178              		.loc 1 604 4 view .LVU329
 1179              		.loc 1 605 4 view .LVU330
 1180              		.loc 1 605 22 is_stmt 0 view .LVU331
 1181 004c 0C9D     		ldr	r5, [sp, #48]
 1182 004e 2C63     		str	r4, [r5, #48]
 1183              		.loc 1 611 5 is_stmt 1 view .LVU332
 1184              		.loc 1 611 37 is_stmt 0 view .LVU333
 1185 0050 0224     		movs	r4, #2
 1186 0052 85F85940 		strb	r4, [r5, #89]
 1187              		.loc 1 615 4 is_stmt 1 view .LVU334
 1188 0056 0024     		movs	r4, #0
 1189 0058 0394     		str	r4, [sp, #12]
 1190 005a 0295     		str	r5, [sp, #8]
 1191 005c 05AC     		add	r4, sp, #20
 1192 005e 0194     		str	r4, [sp, #4]
 1193 0060 0A9C     		ldr	r4, [sp, #40]
 1194 0062 0094     		str	r4, [sp]
 1195 0064 034C     		ldr	r4, .L89
 1196 0066 A047     		blx	r4
 1197              	.LVL83:
 1198              		.loc 1 616 4 view .LVU335
 1199 0068 0C98     		ldr	r0, [sp, #48]
 1200 006a 034B     		ldr	r3, .L89+4
 1201 006c 9847     		blx	r3
 1202              	.LVL84:
 1203              		.loc 1 623 3 view .LVU336
 1204              		.loc 1 624 2 is_stmt 0 view .LVU337
 1205 006e 0598     		ldr	r0, [sp, #20]
 1206 0070 07B0     		add	sp, sp, #28
 1207              	.LCFI10:
 1208              		.cfi_def_cfa_offset 12
 1209              		@ sp needed
 1210 0072 30BD     		pop	{r4, r5, pc}
 1211              	.LVL85:
 1212              	.L90:
 1213              		.loc 1 624 2 view .LVU338
 1214              		.align	2
 1215              	.L89:
 1216 0074 00000000 		.word	prvInitialiseNewTask
ARM GAS  C:\Users\Test\AppData\Local\Temp\ccYEQElh.s 			page 22


 1217 0078 00000000 		.word	prvAddNewTaskToReadyList
 1218              		.cfi_endproc
 1219              	.LFE4:
 1221              		.section	.text.xTaskCreate,"ax",%progbits
 1222              		.align	1
 1223              		.global	xTaskCreate
 1224              		.syntax unified
 1225              		.thumb
 1226              		.thumb_func
 1227              		.fpu softvfp
 1229              	xTaskCreate:
 1230              	.LVL86:
 1231              	.LFB5:
 1232              		.loc 1 732 2 is_stmt 1 view -0
 1233              		.cfi_startproc
 1234              		@ args = 8, pretend = 0, frame = 0
 1235              		@ frame_needed = 0, uses_anonymous_args = 0
 1236              		.loc 1 732 2 is_stmt 0 view .LVU340
 1237 0000 2DE9F043 		push	{r4, r5, r6, r7, r8, r9, lr}
 1238              	.LCFI11:
 1239              		.cfi_def_cfa_offset 28
 1240              		.cfi_offset 4, -28
 1241              		.cfi_offset 5, -24
 1242              		.cfi_offset 6, -20
 1243              		.cfi_offset 7, -16
 1244              		.cfi_offset 8, -12
 1245              		.cfi_offset 9, -8
 1246              		.cfi_offset 14, -4
 1247 0004 85B0     		sub	sp, sp, #20
 1248              	.LCFI12:
 1249              		.cfi_def_cfa_offset 48
 1250 0006 0546     		mov	r5, r0
 1251 0008 0E46     		mov	r6, r1
 1252 000a 1446     		mov	r4, r2
 1253 000c 9846     		mov	r8, r3
 1254              		.loc 1 733 2 is_stmt 1 view .LVU341
 1255              		.loc 1 734 2 view .LVU342
 1256              	.LBB127:
 1257              		.loc 1 763 3 view .LVU343
 1258              		.loc 1 766 4 view .LVU344
 1259              		.loc 1 766 32 is_stmt 0 view .LVU345
 1260 000e 9000     		lsls	r0, r2, #2
 1261              	.LVL87:
 1262              		.loc 1 766 32 view .LVU346
 1263 0010 154A     		ldr	r2, .L98
 1264              	.LVL88:
 1265              		.loc 1 766 32 view .LVU347
 1266 0012 9047     		blx	r2
 1267              	.LVL89:
 1268              		.loc 1 768 4 is_stmt 1 view .LVU348
 1269              		.loc 1 768 6 is_stmt 0 view .LVU349
 1270 0014 00B3     		cbz	r0, .L95
 1271 0016 8146     		mov	r9, r0
 1272              		.loc 1 771 5 is_stmt 1 view .LVU350
 1273              		.loc 1 771 28 is_stmt 0 view .LVU351
 1274 0018 5C20     		movs	r0, #92
 1275              	.LVL90:
ARM GAS  C:\Users\Test\AppData\Local\Temp\ccYEQElh.s 			page 23


 1276              		.loc 1 771 28 view .LVU352
 1277 001a 134B     		ldr	r3, .L98
 1278 001c 9847     		blx	r3
 1279              	.LVL91:
 1280              		.loc 1 773 5 is_stmt 1 view .LVU353
 1281              		.loc 1 773 7 is_stmt 0 view .LVU354
 1282 001e 0746     		mov	r7, r0
 1283 0020 B0B1     		cbz	r0, .L93
 1284              		.loc 1 776 6 is_stmt 1 view .LVU355
 1285              		.loc 1 776 24 is_stmt 0 view .LVU356
 1286 0022 C0F83090 		str	r9, [r0, #48]
 1287              	.LVL92:
 1288              	.L94:
 1289              		.loc 1 776 24 view .LVU357
 1290              	.LBE127:
 1291              		.loc 1 792 3 is_stmt 1 view .LVU358
 1292              		.loc 1 792 5 is_stmt 0 view .LVU359
 1293 0026 E7B1     		cbz	r7, .L96
 1294              		.loc 1 798 5 is_stmt 1 view .LVU360
 1295              		.loc 1 798 37 is_stmt 0 view .LVU361
 1296 0028 0023     		movs	r3, #0
 1297 002a 87F85930 		strb	r3, [r7, #89]
 1298              		.loc 1 802 4 is_stmt 1 view .LVU362
 1299 002e 0393     		str	r3, [sp, #12]
 1300 0030 0297     		str	r7, [sp, #8]
 1301 0032 0D9B     		ldr	r3, [sp, #52]
 1302 0034 0193     		str	r3, [sp, #4]
 1303 0036 0C9B     		ldr	r3, [sp, #48]
 1304 0038 0093     		str	r3, [sp]
 1305 003a 4346     		mov	r3, r8
 1306 003c 2246     		mov	r2, r4
 1307 003e 3146     		mov	r1, r6
 1308 0040 2846     		mov	r0, r5
 1309 0042 0A4C     		ldr	r4, .L98+4
 1310 0044 A047     		blx	r4
 1311              	.LVL93:
 1312              		.loc 1 803 4 view .LVU363
 1313 0046 3846     		mov	r0, r7
 1314 0048 094B     		ldr	r3, .L98+8
 1315 004a 9847     		blx	r3
 1316              	.LVL94:
 1317              		.loc 1 804 4 view .LVU364
 1318              		.loc 1 804 12 is_stmt 0 view .LVU365
 1319 004c 0120     		movs	r0, #1
 1320 004e 05E0     		b	.L91
 1321              	.LVL95:
 1322              	.L93:
 1323              	.LBB128:
 1324              		.loc 1 782 6 is_stmt 1 view .LVU366
 1325 0050 4846     		mov	r0, r9
 1326              	.LVL96:
 1327              		.loc 1 782 6 is_stmt 0 view .LVU367
 1328 0052 084B     		ldr	r3, .L98+12
 1329 0054 9847     		blx	r3
 1330              	.LVL97:
 1331 0056 E6E7     		b	.L94
 1332              	.LVL98:
ARM GAS  C:\Users\Test\AppData\Local\Temp\ccYEQElh.s 			page 24


 1333              	.L95:
 1334              		.loc 1 782 6 view .LVU368
 1335              	.LBE128:
 1336              		.loc 1 808 12 view .LVU369
 1337 0058 4FF0FF30 		mov	r0, #-1
 1338              	.LVL99:
 1339              	.L91:
 1340              		.loc 1 812 2 view .LVU370
 1341 005c 05B0     		add	sp, sp, #20
 1342              	.LCFI13:
 1343              		.cfi_remember_state
 1344              		.cfi_def_cfa_offset 28
 1345              		@ sp needed
 1346 005e BDE8F083 		pop	{r4, r5, r6, r7, r8, r9, pc}
 1347              	.LVL100:
 1348              	.L96:
 1349              	.LCFI14:
 1350              		.cfi_restore_state
 1351              		.loc 1 808 12 view .LVU371
 1352 0062 4FF0FF30 		mov	r0, #-1
 1353              	.LVL101:
 1354              		.loc 1 811 3 is_stmt 1 view .LVU372
 1355              		.loc 1 811 10 is_stmt 0 view .LVU373
 1356 0066 F9E7     		b	.L91
 1357              	.L99:
 1358              		.align	2
 1359              	.L98:
 1360 0068 00000000 		.word	pvPortMalloc
 1361 006c 00000000 		.word	prvInitialiseNewTask
 1362 0070 00000000 		.word	prvAddNewTaskToReadyList
 1363 0074 00000000 		.word	vPortFree
 1364              		.cfi_endproc
 1365              	.LFE5:
 1367              		.section	.text.vTaskDelete,"ax",%progbits
 1368              		.align	1
 1369              		.global	vTaskDelete
 1370              		.syntax unified
 1371              		.thumb
 1372              		.thumb_func
 1373              		.fpu softvfp
 1375              	vTaskDelete:
 1376              	.LVL102:
 1377              	.LFB8:
 1378              		.loc 1 1107 2 is_stmt 1 view -0
 1379              		.cfi_startproc
 1380              		@ args = 0, pretend = 0, frame = 0
 1381              		@ frame_needed = 0, uses_anonymous_args = 0
 1382              		.loc 1 1107 2 is_stmt 0 view .LVU375
 1383 0000 38B5     		push	{r3, r4, r5, lr}
 1384              	.LCFI15:
 1385              		.cfi_def_cfa_offset 16
 1386              		.cfi_offset 3, -16
 1387              		.cfi_offset 4, -12
 1388              		.cfi_offset 5, -8
 1389              		.cfi_offset 14, -4
 1390 0002 0446     		mov	r4, r0
 1391              		.loc 1 1108 2 is_stmt 1 view .LVU376
ARM GAS  C:\Users\Test\AppData\Local\Temp\ccYEQElh.s 			page 25


 1392              		.loc 1 1110 3 view .LVU377
 1393 0004 254B     		ldr	r3, .L112
 1394 0006 9847     		blx	r3
 1395              	.LVL103:
 1396              		.loc 1 1114 4 view .LVU378
 1397              		.loc 1 1114 12 is_stmt 0 view .LVU379
 1398 0008 24B3     		cbz	r4, .L109
 1399              	.LVL104:
 1400              	.L101:
 1401              		.loc 1 1117 4 is_stmt 1 discriminator 4 view .LVU380
 1402              		.loc 1 1117 8 is_stmt 0 discriminator 4 view .LVU381
 1403 000a 251D     		adds	r5, r4, #4
 1404 000c 2846     		mov	r0, r5
 1405 000e 244B     		ldr	r3, .L112+4
 1406 0010 9847     		blx	r3
 1407              	.LVL105:
 1408              		.loc 1 1123 29 is_stmt 1 discriminator 4 view .LVU382
 1409              		.loc 1 1127 4 discriminator 4 view .LVU383
 1410              		.loc 1 1127 8 is_stmt 0 discriminator 4 view .LVU384
 1411 0012 A36A     		ldr	r3, [r4, #40]
 1412              		.loc 1 1127 6 discriminator 4 view .LVU385
 1413 0014 1BB1     		cbz	r3, .L102
 1414              		.loc 1 1129 5 is_stmt 1 view .LVU386
 1415              		.loc 1 1129 14 is_stmt 0 view .LVU387
 1416 0016 04F11800 		add	r0, r4, #24
 1417 001a 214B     		ldr	r3, .L112+4
 1418 001c 9847     		blx	r3
 1419              	.LVL106:
 1420              	.L102:
 1421              		.loc 1 1133 29 is_stmt 1 view .LVU388
 1422              		.loc 1 1140 4 view .LVU389
 1423              		.loc 1 1140 16 is_stmt 0 view .LVU390
 1424 001e 214A     		ldr	r2, .L112+8
 1425 0020 1368     		ldr	r3, [r2]
 1426 0022 0133     		adds	r3, r3, #1
 1427 0024 1360     		str	r3, [r2]
 1428              		.loc 1 1142 4 is_stmt 1 view .LVU391
 1429              		.loc 1 1142 14 is_stmt 0 view .LVU392
 1430 0026 204B     		ldr	r3, .L112+12
 1431 0028 1B68     		ldr	r3, [r3]
 1432              		.loc 1 1142 6 view .LVU393
 1433 002a A342     		cmp	r3, r4
 1434 002c 15D0     		beq	.L110
 1435              		.loc 1 1165 5 is_stmt 1 view .LVU394
 1436 002e 1F4A     		ldr	r2, .L112+16
 1437 0030 1368     		ldr	r3, [r2]
 1438 0032 013B     		subs	r3, r3, #1
 1439 0034 1360     		str	r3, [r2]
 1440              		.loc 1 1166 5 view .LVU395
 1441 0036 2046     		mov	r0, r4
 1442 0038 1D4B     		ldr	r3, .L112+20
 1443 003a 9847     		blx	r3
 1444              	.LVL107:
 1445              		.loc 1 1170 5 view .LVU396
 1446 003c 1D4B     		ldr	r3, .L112+24
 1447 003e 9847     		blx	r3
 1448              	.LVL108:
ARM GAS  C:\Users\Test\AppData\Local\Temp\ccYEQElh.s 			page 26


 1449              	.L104:
 1450              		.loc 1 1173 29 view .LVU397
 1451              		.loc 1 1175 3 view .LVU398
 1452 0040 1D4B     		ldr	r3, .L112+28
 1453 0042 9847     		blx	r3
 1454              	.LVL109:
 1455              		.loc 1 1179 3 view .LVU399
 1456              		.loc 1 1179 25 is_stmt 0 view .LVU400
 1457 0044 1D4B     		ldr	r3, .L112+32
 1458 0046 1B68     		ldr	r3, [r3]
 1459              		.loc 1 1179 5 view .LVU401
 1460 0048 1BB1     		cbz	r3, .L100
 1461              		.loc 1 1181 4 is_stmt 1 view .LVU402
 1462              		.loc 1 1181 14 is_stmt 0 view .LVU403
 1463 004a 174B     		ldr	r3, .L112+12
 1464 004c 1B68     		ldr	r3, [r3]
 1465              		.loc 1 1181 6 view .LVU404
 1466 004e A342     		cmp	r3, r4
 1467 0050 0CD0     		beq	.L111
 1468              	.L100:
 1469              		.loc 1 1191 2 view .LVU405
 1470 0052 38BD     		pop	{r3, r4, r5, pc}
 1471              	.LVL110:
 1472              	.L109:
 1473              		.loc 1 1114 12 discriminator 1 view .LVU406
 1474 0054 144B     		ldr	r3, .L112+12
 1475 0056 1C68     		ldr	r4, [r3]
 1476              	.LVL111:
 1477              		.loc 1 1114 12 discriminator 1 view .LVU407
 1478 0058 D7E7     		b	.L101
 1479              	.LVL112:
 1480              	.L110:
 1481              		.loc 1 1149 5 is_stmt 1 view .LVU408
 1482 005a 2946     		mov	r1, r5
 1483 005c 1848     		ldr	r0, .L112+36
 1484 005e 194B     		ldr	r3, .L112+40
 1485 0060 9847     		blx	r3
 1486              	.LVL113:
 1487              		.loc 1 1154 5 view .LVU409
 1488 0062 194A     		ldr	r2, .L112+44
 1489 0064 1368     		ldr	r3, [r2]
 1490 0066 0133     		adds	r3, r3, #1
 1491 0068 1360     		str	r3, [r2]
 1492              		.loc 1 1161 54 view .LVU410
 1493 006a E9E7     		b	.L104
 1494              	.L111:
 1495              		.loc 1 1183 5 view .LVU411
 1496 006c 174B     		ldr	r3, .L112+48
 1497 006e 1B68     		ldr	r3, [r3]
 1498 0070 43B1     		cbz	r3, .L106
 1499              		.loc 1 1183 5 view .LVU412
 1500              	.LBB129:
 1501              	.LBI129:
 1502              		.loc 2 191 30 view .LVU413
 1503              	.LBB130:
 1504              		.loc 2 193 1 view .LVU414
 1505              		.loc 2 195 2 view .LVU415
ARM GAS  C:\Users\Test\AppData\Local\Temp\ccYEQElh.s 			page 27


 1506              		.syntax unified
 1507              	@ 195 "Middlewares/Third_Party/FreeRTOS/Source/portable/GCC/ARM_CM3/portmacro.h" 1
 1508 0072 4FF05003 			mov r3, #80												
 1509 0076 83F31188 		msr basepri, r3											
 1510 007a BFF36F8F 		isb														
 1511 007e BFF34F8F 		dsb														
 1512              	
 1513              	@ 0 "" 2
 1514              	.LVL114:
 1515              		.thumb
 1516              		.syntax unified
 1517              	.L107:
 1518              		.loc 2 195 2 is_stmt 0 view .LVU416
 1519              	.LBE130:
 1520              	.LBE129:
 1521              		.loc 1 1183 5 is_stmt 1 discriminator 1 view .LVU417
 1522              		.loc 1 1183 5 discriminator 1 view .LVU418
 1523              		.loc 1 1183 5 discriminator 1 view .LVU419
 1524 0082 FEE7     		b	.L107
 1525              	.L106:
 1526              		.loc 1 1183 46 discriminator 2 view .LVU420
 1527              		.loc 1 1184 5 discriminator 2 view .LVU421
 1528 0084 4FF0E023 		mov	r3, #-536813568
 1529 0088 4FF08052 		mov	r2, #268435456
 1530 008c C3F8042D 		str	r2, [r3, #3332]
 1531              		.loc 1 1184 5 discriminator 2 view .LVU422
 1532              		.syntax unified
 1533              	@ 1184 "Middlewares/Third_Party/FreeRTOS/Source/tasks.c" 1
 1534 0090 BFF34F8F 		dsb
 1535              	@ 0 "" 2
 1536              		.loc 1 1184 5 discriminator 2 view .LVU423
 1537              	@ 1184 "Middlewares/Third_Party/FreeRTOS/Source/tasks.c" 1
 1538 0094 BFF36F8F 		isb
 1539              	@ 0 "" 2
 1540              		.loc 1 1184 27 discriminator 2 view .LVU424
 1541              		.loc 1 1188 29 discriminator 2 view .LVU425
 1542              		.loc 1 1191 2 is_stmt 0 discriminator 2 view .LVU426
 1543              		.thumb
 1544              		.syntax unified
 1545 0098 DBE7     		b	.L100
 1546              	.L113:
 1547 009a 00BF     		.align	2
 1548              	.L112:
 1549 009c 00000000 		.word	vPortEnterCritical
 1550 00a0 00000000 		.word	uxListRemove
 1551 00a4 00000000 		.word	.LANCHOR12
 1552 00a8 00000000 		.word	.LANCHOR10
 1553 00ac 00000000 		.word	.LANCHOR9
 1554 00b0 00000000 		.word	prvDeleteTCB
 1555 00b4 00000000 		.word	prvResetNextTaskUnblockTime
 1556 00b8 00000000 		.word	vPortExitCritical
 1557 00bc 00000000 		.word	.LANCHOR11
 1558 00c0 00000000 		.word	.LANCHOR7
 1559 00c4 00000000 		.word	vListInsertEnd
 1560 00c8 00000000 		.word	.LANCHOR14
 1561 00cc 00000000 		.word	.LANCHOR16
 1562              		.cfi_endproc
ARM GAS  C:\Users\Test\AppData\Local\Temp\ccYEQElh.s 			page 28


 1563              	.LFE8:
 1565              		.section	.text.eTaskGetState,"ax",%progbits
 1566              		.align	1
 1567              		.global	eTaskGetState
 1568              		.syntax unified
 1569              		.thumb
 1570              		.thumb_func
 1571              		.fpu softvfp
 1573              	eTaskGetState:
 1574              	.LVL115:
 1575              	.LFB11:
 1576              		.loc 1 1328 2 is_stmt 1 view -0
 1577              		.cfi_startproc
 1578              		@ args = 0, pretend = 0, frame = 0
 1579              		@ frame_needed = 0, uses_anonymous_args = 0
 1580              		.loc 1 1328 2 is_stmt 0 view .LVU428
 1581 0000 38B5     		push	{r3, r4, r5, lr}
 1582              	.LCFI16:
 1583              		.cfi_def_cfa_offset 16
 1584              		.cfi_offset 3, -16
 1585              		.cfi_offset 4, -12
 1586              		.cfi_offset 5, -8
 1587              		.cfi_offset 14, -4
 1588              		.loc 1 1329 2 is_stmt 1 view .LVU429
 1589              		.loc 1 1330 2 view .LVU430
 1590              		.loc 1 1331 2 view .LVU431
 1591              	.LVL116:
 1592              		.loc 1 1333 3 view .LVU432
 1593 0002 D0B1     		cbz	r0, .L126
 1594 0004 0446     		mov	r4, r0
 1595              		.loc 1 1333 24 discriminator 2 view .LVU433
 1596              		.loc 1 1335 3 discriminator 2 view .LVU434
 1597              		.loc 1 1335 13 is_stmt 0 discriminator 2 view .LVU435
 1598 0006 194B     		ldr	r3, .L130
 1599 0008 1B68     		ldr	r3, [r3]
 1600              		.loc 1 1335 5 discriminator 2 view .LVU436
 1601 000a 8342     		cmp	r3, r0
 1602 000c 26D0     		beq	.L119
 1603              		.loc 1 1342 4 is_stmt 1 view .LVU437
 1604 000e 184B     		ldr	r3, .L130+4
 1605 0010 9847     		blx	r3
 1606              	.LVL117:
 1607              		.loc 1 1344 5 view .LVU438
 1608              		.loc 1 1344 17 is_stmt 0 view .LVU439
 1609 0012 6569     		ldr	r5, [r4, #20]
 1610              	.LVL118:
 1611              		.loc 1 1346 4 is_stmt 1 view .LVU440
 1612 0014 174B     		ldr	r3, .L130+8
 1613 0016 9847     		blx	r3
 1614              	.LVL119:
 1615              		.loc 1 1348 4 view .LVU441
 1616              		.loc 1 1348 22 is_stmt 0 view .LVU442
 1617 0018 174B     		ldr	r3, .L130+12
 1618 001a 1B68     		ldr	r3, [r3]
 1619              		.loc 1 1348 6 view .LVU443
 1620 001c AB42     		cmp	r3, r5
 1621 001e 1FD0     		beq	.L120
ARM GAS  C:\Users\Test\AppData\Local\Temp\ccYEQElh.s 			page 29


 1622              		.loc 1 1348 62 discriminator 1 view .LVU444
 1623 0020 164B     		ldr	r3, .L130+16
 1624 0022 1B68     		ldr	r3, [r3]
 1625              		.loc 1 1348 45 discriminator 1 view .LVU445
 1626 0024 AB42     		cmp	r3, r5
 1627 0026 1DD0     		beq	.L121
 1628              		.loc 1 1356 10 is_stmt 1 view .LVU446
 1629              		.loc 1 1356 12 is_stmt 0 view .LVU447
 1630 0028 154B     		ldr	r3, .L130+20
 1631 002a 9D42     		cmp	r5, r3
 1632 002c 0ED0     		beq	.L127
 1633              		.loc 1 1373 10 is_stmt 1 view .LVU448
 1634              		.loc 1 1373 12 is_stmt 0 view .LVU449
 1635 002e 154B     		ldr	r3, .L130+24
 1636 0030 9D42     		cmp	r5, r3
 1637 0032 19D0     		beq	.L123
 1638              		.loc 1 1373 59 discriminator 1 view .LVU450
 1639 0034 85B1     		cbz	r5, .L128
 1640              		.loc 1 1386 13 view .LVU451
 1641 0036 0120     		movs	r0, #1
 1642 0038 11E0     		b	.L117
 1643              	.LVL120:
 1644              	.L126:
 1645              		.loc 1 1333 3 is_stmt 1 view .LVU452
 1646              	.LBB131:
 1647              	.LBI131:
 1648              		.loc 2 191 30 view .LVU453
 1649              	.LBB132:
 1650              		.loc 2 193 1 view .LVU454
 1651              		.loc 2 195 2 view .LVU455
 1652              		.syntax unified
 1653              	@ 195 "Middlewares/Third_Party/FreeRTOS/Source/portable/GCC/ARM_CM3/portmacro.h" 1
 1654 003a 4FF05003 			mov r3, #80												
 1655 003e 83F31188 		msr basepri, r3											
 1656 0042 BFF36F8F 		isb														
 1657 0046 BFF34F8F 		dsb														
 1658              	
 1659              	@ 0 "" 2
 1660              	.LVL121:
 1661              		.thumb
 1662              		.syntax unified
 1663              	.L116:
 1664              		.loc 2 195 2 is_stmt 0 view .LVU456
 1665              	.LBE132:
 1666              	.LBE131:
 1667              		.loc 1 1333 3 is_stmt 1 discriminator 1 view .LVU457
 1668              		.loc 1 1333 3 discriminator 1 view .LVU458
 1669              		.loc 1 1333 3 discriminator 1 view .LVU459
 1670 004a FEE7     		b	.L116
 1671              	.LVL122:
 1672              	.L127:
 1673              		.loc 1 1361 6 view .LVU460
 1674              		.loc 1 1361 10 is_stmt 0 view .LVU461
 1675 004c A36A     		ldr	r3, [r4, #40]
 1676              		.loc 1 1361 8 view .LVU462
 1677 004e 0BB1     		cbz	r3, .L129
 1678              		.loc 1 1367 15 view .LVU463
ARM GAS  C:\Users\Test\AppData\Local\Temp\ccYEQElh.s 			page 30


 1679 0050 0220     		movs	r0, #2
 1680 0052 04E0     		b	.L117
 1681              	.L129:
 1682              		.loc 1 1363 15 view .LVU464
 1683 0054 0320     		movs	r0, #3
 1684 0056 02E0     		b	.L117
 1685              	.L128:
 1686              		.loc 1 1378 14 view .LVU465
 1687 0058 0420     		movs	r0, #4
 1688 005a 00E0     		b	.L117
 1689              	.LVL123:
 1690              	.L119:
 1691              		.loc 1 1338 12 view .LVU466
 1692 005c 0020     		movs	r0, #0
 1693              	.LVL124:
 1694              	.L117:
 1695              		.loc 1 1390 3 is_stmt 1 view .LVU467
 1696              		.loc 1 1391 2 is_stmt 0 view .LVU468
 1697 005e 38BD     		pop	{r3, r4, r5, pc}
 1698              	.LVL125:
 1699              	.L120:
 1700              		.loc 1 1352 13 view .LVU469
 1701 0060 0220     		movs	r0, #2
 1702 0062 FCE7     		b	.L117
 1703              	.L121:
 1704 0064 0220     		movs	r0, #2
 1705 0066 FAE7     		b	.L117
 1706              	.L123:
 1707              		.loc 1 1378 14 view .LVU470
 1708 0068 0420     		movs	r0, #4
 1709 006a F8E7     		b	.L117
 1710              	.L131:
 1711              		.align	2
 1712              	.L130:
 1713 006c 00000000 		.word	.LANCHOR10
 1714 0070 00000000 		.word	vPortEnterCritical
 1715 0074 00000000 		.word	vPortExitCritical
 1716 0078 00000000 		.word	.LANCHOR2
 1717 007c 00000000 		.word	.LANCHOR8
 1718 0080 00000000 		.word	.LANCHOR0
 1719 0084 00000000 		.word	.LANCHOR7
 1720              		.cfi_endproc
 1721              	.LFE11:
 1723              		.section	.text.uxTaskPriorityGet,"ax",%progbits
 1724              		.align	1
 1725              		.global	uxTaskPriorityGet
 1726              		.syntax unified
 1727              		.thumb
 1728              		.thumb_func
 1729              		.fpu softvfp
 1731              	uxTaskPriorityGet:
 1732              	.LVL126:
 1733              	.LFB12:
 1734              		.loc 1 1399 2 is_stmt 1 view -0
 1735              		.cfi_startproc
 1736              		@ args = 0, pretend = 0, frame = 0
 1737              		@ frame_needed = 0, uses_anonymous_args = 0
ARM GAS  C:\Users\Test\AppData\Local\Temp\ccYEQElh.s 			page 31


 1738              		.loc 1 1399 2 is_stmt 0 view .LVU472
 1739 0000 10B5     		push	{r4, lr}
 1740              	.LCFI17:
 1741              		.cfi_def_cfa_offset 8
 1742              		.cfi_offset 4, -8
 1743              		.cfi_offset 14, -4
 1744 0002 0446     		mov	r4, r0
 1745              		.loc 1 1400 2 is_stmt 1 view .LVU473
 1746              		.loc 1 1401 2 view .LVU474
 1747              		.loc 1 1403 3 view .LVU475
 1748 0004 054B     		ldr	r3, .L136
 1749 0006 9847     		blx	r3
 1750              	.LVL127:
 1751              		.loc 1 1407 4 view .LVU476
 1752              		.loc 1 1407 12 is_stmt 0 view .LVU477
 1753 0008 24B1     		cbz	r4, .L135
 1754              	.LVL128:
 1755              	.L133:
 1756              		.loc 1 1408 4 is_stmt 1 discriminator 4 view .LVU478
 1757              		.loc 1 1408 13 is_stmt 0 discriminator 4 view .LVU479
 1758 000a E46A     		ldr	r4, [r4, #44]
 1759              	.LVL129:
 1760              		.loc 1 1410 3 is_stmt 1 discriminator 4 view .LVU480
 1761 000c 044B     		ldr	r3, .L136+4
 1762 000e 9847     		blx	r3
 1763              	.LVL130:
 1764              		.loc 1 1412 3 discriminator 4 view .LVU481
 1765              		.loc 1 1413 2 is_stmt 0 discriminator 4 view .LVU482
 1766 0010 2046     		mov	r0, r4
 1767 0012 10BD     		pop	{r4, pc}
 1768              	.LVL131:
 1769              	.L135:
 1770              		.loc 1 1407 12 discriminator 1 view .LVU483
 1771 0014 034B     		ldr	r3, .L136+8
 1772 0016 1C68     		ldr	r4, [r3]
 1773              	.LVL132:
 1774              		.loc 1 1407 12 discriminator 1 view .LVU484
 1775 0018 F7E7     		b	.L133
 1776              	.L137:
 1777 001a 00BF     		.align	2
 1778              	.L136:
 1779 001c 00000000 		.word	vPortEnterCritical
 1780 0020 00000000 		.word	vPortExitCritical
 1781 0024 00000000 		.word	.LANCHOR10
 1782              		.cfi_endproc
 1783              	.LFE12:
 1785              		.section	.text.uxTaskPriorityGetFromISR,"ax",%progbits
 1786              		.align	1
 1787              		.global	uxTaskPriorityGetFromISR
 1788              		.syntax unified
 1789              		.thumb
 1790              		.thumb_func
 1791              		.fpu softvfp
 1793              	uxTaskPriorityGetFromISR:
 1794              	.LVL133:
 1795              	.LFB13:
 1796              		.loc 1 1421 2 is_stmt 1 view -0
ARM GAS  C:\Users\Test\AppData\Local\Temp\ccYEQElh.s 			page 32


 1797              		.cfi_startproc
 1798              		@ args = 0, pretend = 0, frame = 0
 1799              		@ frame_needed = 0, uses_anonymous_args = 0
 1800              		.loc 1 1421 2 is_stmt 0 view .LVU486
 1801 0000 10B5     		push	{r4, lr}
 1802              	.LCFI18:
 1803              		.cfi_def_cfa_offset 8
 1804              		.cfi_offset 4, -8
 1805              		.cfi_offset 14, -4
 1806 0002 0446     		mov	r4, r0
 1807              		.loc 1 1422 2 is_stmt 1 view .LVU487
 1808              		.loc 1 1423 2 view .LVU488
 1809              		.loc 1 1441 3 view .LVU489
 1810 0004 094B     		ldr	r3, .L142
 1811 0006 9847     		blx	r3
 1812              	.LVL134:
 1813              		.loc 1 1443 3 view .LVU490
 1814              	.LBB133:
 1815              	.LBI133:
 1816              		.loc 2 207 34 view .LVU491
 1817              	.LBB134:
 1818              		.loc 2 209 1 view .LVU492
 1819              		.loc 2 211 2 view .LVU493
 1820              		.syntax unified
 1821              	@ 211 "Middlewares/Third_Party/FreeRTOS/Source/portable/GCC/ARM_CM3/portmacro.h" 1
 1822 0008 EFF31183 			mrs r3, basepri											
 1823 000c 4FF05002 		mov r2, #80												
 1824 0010 82F31188 		msr basepri, r2											
 1825 0014 BFF36F8F 		isb														
 1826 0018 BFF34F8F 		dsb														
 1827              	
 1828              	@ 0 "" 2
 1829              	.LVL135:
 1830              		.loc 2 223 2 view .LVU494
 1831              		.loc 2 223 2 is_stmt 0 view .LVU495
 1832              		.thumb
 1833              		.syntax unified
 1834              	.LBE134:
 1835              	.LBE133:
 1836              		.loc 1 1447 4 is_stmt 1 view .LVU496
 1837              		.loc 1 1447 12 is_stmt 0 view .LVU497
 1838 001c 1CB1     		cbz	r4, .L141
 1839              	.LVL136:
 1840              	.L139:
 1841              		.loc 1 1448 4 is_stmt 1 discriminator 4 view .LVU498
 1842              		.loc 1 1448 13 is_stmt 0 discriminator 4 view .LVU499
 1843 001e E06A     		ldr	r0, [r4, #44]
 1844              	.LVL137:
 1845              		.loc 1 1450 3 is_stmt 1 discriminator 4 view .LVU500
 1846              	.LBB135:
 1847              	.LBI135:
 1848              		.loc 2 227 30 discriminator 4 view .LVU501
 1849              	.LBB136:
 1850              		.loc 2 229 2 discriminator 4 view .LVU502
 1851              		.syntax unified
 1852              	@ 229 "Middlewares/Third_Party/FreeRTOS/Source/portable/GCC/ARM_CM3/portmacro.h" 1
 1853 0020 83F31188 			msr basepri, r3	
ARM GAS  C:\Users\Test\AppData\Local\Temp\ccYEQElh.s 			page 33


 1854              	@ 0 "" 2
 1855              	.LVL138:
 1856              		.loc 2 229 2 is_stmt 0 discriminator 4 view .LVU503
 1857              		.thumb
 1858              		.syntax unified
 1859              	.LBE136:
 1860              	.LBE135:
 1861              		.loc 1 1452 3 is_stmt 1 discriminator 4 view .LVU504
 1862              		.loc 1 1453 2 is_stmt 0 discriminator 4 view .LVU505
 1863 0024 10BD     		pop	{r4, pc}
 1864              	.LVL139:
 1865              	.L141:
 1866              		.loc 1 1447 12 discriminator 1 view .LVU506
 1867 0026 024A     		ldr	r2, .L142+4
 1868 0028 1468     		ldr	r4, [r2]
 1869              	.LVL140:
 1870              		.loc 1 1447 12 discriminator 1 view .LVU507
 1871 002a F8E7     		b	.L139
 1872              	.L143:
 1873              		.align	2
 1874              	.L142:
 1875 002c 00000000 		.word	vPortValidateInterruptPriority
 1876 0030 00000000 		.word	.LANCHOR10
 1877              		.cfi_endproc
 1878              	.LFE13:
 1880              		.section	.text.vTaskPrioritySet,"ax",%progbits
 1881              		.align	1
 1882              		.global	vTaskPrioritySet
 1883              		.syntax unified
 1884              		.thumb
 1885              		.thumb_func
 1886              		.fpu softvfp
 1888              	vTaskPrioritySet:
 1889              	.LVL141:
 1890              	.LFB14:
 1891              		.loc 1 1461 2 is_stmt 1 view -0
 1892              		.cfi_startproc
 1893              		@ args = 0, pretend = 0, frame = 0
 1894              		@ frame_needed = 0, uses_anonymous_args = 0
 1895              		.loc 1 1462 2 view .LVU509
 1896              		.loc 1 1463 2 view .LVU510
 1897              		.loc 1 1464 2 view .LVU511
 1898              		.loc 1 1466 3 view .LVU512
 1899 0000 3729     		cmp	r1, #55
 1900 0002 08D9     		bls	.L145
 1901              		.loc 1 1466 3 view .LVU513
 1902              	.LBB137:
 1903              	.LBI137:
 1904              		.loc 2 191 30 view .LVU514
 1905              	.LBB138:
 1906              		.loc 2 193 1 view .LVU515
 1907              		.loc 2 195 2 view .LVU516
 1908              		.syntax unified
 1909              	@ 195 "Middlewares/Third_Party/FreeRTOS/Source/portable/GCC/ARM_CM3/portmacro.h" 1
 1910 0004 4FF05003 			mov r3, #80												
 1911 0008 83F31188 		msr basepri, r3											
 1912 000c BFF36F8F 		isb														
ARM GAS  C:\Users\Test\AppData\Local\Temp\ccYEQElh.s 			page 34


 1913 0010 BFF34F8F 		dsb														
 1914              	
 1915              	@ 0 "" 2
 1916              	.LVL142:
 1917              		.thumb
 1918              		.syntax unified
 1919              	.L146:
 1920              		.loc 2 195 2 is_stmt 0 view .LVU517
 1921              	.LBE138:
 1922              	.LBE137:
 1923              		.loc 1 1466 3 is_stmt 1 discriminator 1 view .LVU518
 1924              		.loc 1 1466 3 discriminator 1 view .LVU519
 1925              		.loc 1 1466 3 discriminator 1 view .LVU520
 1926 0014 FEE7     		b	.L146
 1927              	.L145:
 1928              		.loc 1 1461 2 is_stmt 0 view .LVU521
 1929 0016 70B5     		push	{r4, r5, r6, lr}
 1930              	.LCFI19:
 1931              		.cfi_def_cfa_offset 16
 1932              		.cfi_offset 4, -16
 1933              		.cfi_offset 5, -12
 1934              		.cfi_offset 6, -8
 1935              		.cfi_offset 14, -4
 1936 0018 0546     		mov	r5, r0
 1937 001a 0C46     		mov	r4, r1
 1938              		.loc 1 1466 59 is_stmt 1 view .LVU522
 1939              		.loc 1 1469 3 view .LVU523
 1940              	.LVL143:
 1941              		.loc 1 1475 28 view .LVU524
 1942              		.loc 1 1478 3 view .LVU525
 1943 001c 2A4B     		ldr	r3, .L163
 1944 001e 9847     		blx	r3
 1945              	.LVL144:
 1946              		.loc 1 1482 4 view .LVU526
 1947              		.loc 1 1482 12 is_stmt 0 view .LVU527
 1948 0020 75B1     		cbz	r5, .L160
 1949              	.LVL145:
 1950              	.L147:
 1951              		.loc 1 1484 50 is_stmt 1 discriminator 4 view .LVU528
 1952              		.loc 1 1488 5 discriminator 4 view .LVU529
 1953              		.loc 1 1488 27 is_stmt 0 discriminator 4 view .LVU530
 1954 0022 EA6C     		ldr	r2, [r5, #76]
 1955              	.LVL146:
 1956              		.loc 1 1496 4 is_stmt 1 discriminator 4 view .LVU531
 1957              		.loc 1 1496 6 is_stmt 0 discriminator 4 view .LVU532
 1958 0024 9442     		cmp	r4, r2
 1959 0026 30D0     		beq	.L148
 1960              		.loc 1 1500 5 is_stmt 1 view .LVU533
 1961              		.loc 1 1500 7 is_stmt 0 view .LVU534
 1962 0028 0DD9     		bls	.L149
 1963              		.loc 1 1502 6 is_stmt 1 view .LVU535
 1964              		.loc 1 1502 16 is_stmt 0 view .LVU536
 1965 002a 284B     		ldr	r3, .L163+4
 1966 002c 1B68     		ldr	r3, [r3]
 1967              		.loc 1 1502 8 view .LVU537
 1968 002e AB42     		cmp	r3, r5
 1969 0030 2ED0     		beq	.L155
ARM GAS  C:\Users\Test\AppData\Local\Temp\ccYEQElh.s 			page 35


 1970              		.loc 1 1507 7 is_stmt 1 view .LVU538
 1971              		.loc 1 1507 40 is_stmt 0 view .LVU539
 1972 0032 264B     		ldr	r3, .L163+4
 1973 0034 1B68     		ldr	r3, [r3]
 1974 0036 DB6A     		ldr	r3, [r3, #44]
 1975              		.loc 1 1507 9 view .LVU540
 1976 0038 A342     		cmp	r3, r4
 1977 003a 2BD9     		bls	.L156
 1978              		.loc 1 1464 13 view .LVU541
 1979 003c 0026     		movs	r6, #0
 1980 003e 07E0     		b	.L150
 1981              	.LVL147:
 1982              	.L160:
 1983              		.loc 1 1482 12 discriminator 1 view .LVU542
 1984 0040 224B     		ldr	r3, .L163+4
 1985 0042 1D68     		ldr	r5, [r3]
 1986              	.LVL148:
 1987              		.loc 1 1482 12 discriminator 1 view .LVU543
 1988 0044 EDE7     		b	.L147
 1989              	.LVL149:
 1990              	.L149:
 1991              		.loc 1 1523 10 is_stmt 1 view .LVU544
 1992              		.loc 1 1523 20 is_stmt 0 view .LVU545
 1993 0046 214B     		ldr	r3, .L163+4
 1994 0048 1B68     		ldr	r3, [r3]
 1995              		.loc 1 1523 12 view .LVU546
 1996 004a AB42     		cmp	r3, r5
 1997 004c 24D0     		beq	.L157
 1998              		.loc 1 1464 13 view .LVU547
 1999 004e 0026     		movs	r6, #0
 2000              	.L150:
 2001              	.LVL150:
 2002              		.loc 1 1535 5 is_stmt 1 view .LVU548
 2003              		.loc 1 1540 5 view .LVU549
 2004              		.loc 1 1540 27 is_stmt 0 view .LVU550
 2005 0050 EB6A     		ldr	r3, [r5, #44]
 2006              	.LVL151:
 2007              		.loc 1 1546 6 is_stmt 1 view .LVU551
 2008              		.loc 1 1546 8 is_stmt 0 view .LVU552
 2009 0052 9A42     		cmp	r2, r3
 2010 0054 22D0     		beq	.L161
 2011              	.L151:
 2012              		.loc 1 1552 31 is_stmt 1 view .LVU553
 2013              		.loc 1 1556 6 view .LVU554
 2014              		.loc 1 1556 28 is_stmt 0 view .LVU555
 2015 0056 EC64     		str	r4, [r5, #76]
 2016              		.loc 1 1566 5 is_stmt 1 view .LVU556
 2017              		.loc 1 1566 11 is_stmt 0 view .LVU557
 2018 0058 AA69     		ldr	r2, [r5, #24]
 2019              	.LVL152:
 2020              		.loc 1 1566 7 view .LVU558
 2021 005a 002A     		cmp	r2, #0
 2022 005c 02DB     		blt	.L152
 2023              		.loc 1 1568 6 is_stmt 1 view .LVU559
 2024 005e C4F13804 		rsb	r4, r4, #56
 2025              	.LVL153:
 2026              		.loc 1 1568 6 is_stmt 0 view .LVU560
ARM GAS  C:\Users\Test\AppData\Local\Temp\ccYEQElh.s 			page 36


 2027 0062 AC61     		str	r4, [r5, #24]
 2028              	.L152:
 2029              		.loc 1 1572 30 is_stmt 1 view .LVU561
 2030              		.loc 1 1579 5 view .LVU562
 2031              		.loc 1 1579 9 is_stmt 0 view .LVU563
 2032 0064 6969     		ldr	r1, [r5, #20]
 2033 0066 03EB8303 		add	r3, r3, r3, lsl #2
 2034              	.LVL154:
 2035              		.loc 1 1579 9 view .LVU564
 2036 006a 194A     		ldr	r2, .L163+8
 2037 006c 02EB8303 		add	r3, r2, r3, lsl #2
 2038              		.loc 1 1579 112 view .LVU565
 2039 0070 9942     		cmp	r1, r3
 2040 0072 15D0     		beq	.L162
 2041              	.LVL155:
 2042              	.L153:
 2043              		.loc 1 1599 30 is_stmt 1 view .LVU566
 2044              		.loc 1 1602 5 view .LVU567
 2045              		.loc 1 1602 7 is_stmt 0 view .LVU568
 2046 0074 4EB1     		cbz	r6, .L148
 2047              		.loc 1 1604 6 is_stmt 1 view .LVU569
 2048 0076 4FF0E023 		mov	r3, #-536813568
 2049 007a 4FF08052 		mov	r2, #268435456
 2050 007e C3F8042D 		str	r2, [r3, #3332]
 2051              		.loc 1 1604 6 view .LVU570
 2052              		.syntax unified
 2053              	@ 1604 "Middlewares/Third_Party/FreeRTOS/Source/tasks.c" 1
 2054 0082 BFF34F8F 		dsb
 2055              	@ 0 "" 2
 2056              		.loc 1 1604 6 view .LVU571
 2057              	@ 1604 "Middlewares/Third_Party/FreeRTOS/Source/tasks.c" 1
 2058 0086 BFF36F8F 		isb
 2059              	@ 0 "" 2
 2060              		.loc 1 1604 37 view .LVU572
 2061              	.LVL156:
 2062              		.thumb
 2063              		.syntax unified
 2064              	.L148:
 2065              		.loc 1 1608 30 view .LVU573
 2066              		.loc 1 1613 5 view .LVU574
 2067              		.loc 1 1616 3 view .LVU575
 2068 008a 124B     		ldr	r3, .L163+12
 2069 008c 9847     		blx	r3
 2070              	.LVL157:
 2071              		.loc 1 1617 2 is_stmt 0 view .LVU576
 2072 008e 70BD     		pop	{r4, r5, r6, pc}
 2073              	.LVL158:
 2074              	.L155:
 2075              		.loc 1 1464 13 view .LVU577
 2076 0090 0026     		movs	r6, #0
 2077 0092 DDE7     		b	.L150
 2078              	.L156:
 2079              		.loc 1 1509 23 view .LVU578
 2080 0094 0126     		movs	r6, #1
 2081 0096 DBE7     		b	.L150
 2082              	.L157:
 2083              		.loc 1 1528 21 view .LVU579
ARM GAS  C:\Users\Test\AppData\Local\Temp\ccYEQElh.s 			page 37


 2084 0098 0126     		movs	r6, #1
 2085 009a D9E7     		b	.L150
 2086              	.LVL159:
 2087              	.L161:
 2088              		.loc 1 1548 7 is_stmt 1 view .LVU580
 2089              		.loc 1 1548 25 is_stmt 0 view .LVU581
 2090 009c EC62     		str	r4, [r5, #44]
 2091 009e DAE7     		b	.L151
 2092              	.LVL160:
 2093              	.L162:
 2094              		.loc 1 1584 6 is_stmt 1 view .LVU582
 2095              		.loc 1 1584 10 is_stmt 0 view .LVU583
 2096 00a0 2C1D     		adds	r4, r5, #4
 2097 00a2 2046     		mov	r0, r4
 2098 00a4 0C4B     		ldr	r3, .L163+16
 2099 00a6 9847     		blx	r3
 2100              	.LVL161:
 2101              		.loc 1 1593 31 is_stmt 1 view .LVU584
 2102              		.loc 1 1595 6 view .LVU585
 2103              		.loc 1 1595 6 view .LVU586
 2104 00a8 E86A     		ldr	r0, [r5, #44]
 2105 00aa 0C4B     		ldr	r3, .L163+20
 2106 00ac 1B68     		ldr	r3, [r3]
 2107 00ae 9842     		cmp	r0, r3
 2108 00b0 01D9     		bls	.L154
 2109              		.loc 1 1595 6 discriminator 1 view .LVU587
 2110 00b2 0A4B     		ldr	r3, .L163+20
 2111 00b4 1860     		str	r0, [r3]
 2112              	.L154:
 2113              		.loc 1 1595 6 discriminator 3 view .LVU588
 2114              		.loc 1 1595 6 discriminator 3 view .LVU589
 2115 00b6 00EB8000 		add	r0, r0, r0, lsl #2
 2116 00ba 2146     		mov	r1, r4
 2117 00bc 044B     		ldr	r3, .L163+8
 2118 00be 03EB8000 		add	r0, r3, r0, lsl #2
 2119 00c2 074B     		ldr	r3, .L163+24
 2120 00c4 9847     		blx	r3
 2121              	.LVL162:
 2122              		.loc 1 1595 36 discriminator 3 view .LVU590
 2123 00c6 D5E7     		b	.L153
 2124              	.L164:
 2125              		.align	2
 2126              	.L163:
 2127 00c8 00000000 		.word	vPortEnterCritical
 2128 00cc 00000000 		.word	.LANCHOR10
 2129 00d0 00000000 		.word	.LANCHOR4
 2130 00d4 00000000 		.word	vPortExitCritical
 2131 00d8 00000000 		.word	uxListRemove
 2132 00dc 00000000 		.word	.LANCHOR13
 2133 00e0 00000000 		.word	vListInsertEnd
 2134              		.cfi_endproc
 2135              	.LFE14:
 2137              		.section	.text.vTaskResume,"ax",%progbits
 2138              		.align	1
 2139              		.global	vTaskResume
 2140              		.syntax unified
 2141              		.thumb
ARM GAS  C:\Users\Test\AppData\Local\Temp\ccYEQElh.s 			page 38


 2142              		.thumb_func
 2143              		.fpu softvfp
 2145              	vTaskResume:
 2146              	.LVL163:
 2147              	.LFB17:
 2148              		.loc 1 1772 2 view -0
 2149              		.cfi_startproc
 2150              		@ args = 0, pretend = 0, frame = 0
 2151              		@ frame_needed = 0, uses_anonymous_args = 0
 2152              		.loc 1 1772 2 is_stmt 0 view .LVU592
 2153 0000 38B5     		push	{r3, r4, r5, lr}
 2154              	.LCFI20:
 2155              		.cfi_def_cfa_offset 16
 2156              		.cfi_offset 3, -16
 2157              		.cfi_offset 4, -12
 2158              		.cfi_offset 5, -8
 2159              		.cfi_offset 14, -4
 2160              		.loc 1 1773 2 is_stmt 1 view .LVU593
 2161              	.LVL164:
 2162              		.loc 1 1776 3 view .LVU594
 2163 0002 68B1     		cbz	r0, .L172
 2164 0004 0446     		mov	r4, r0
 2165              		.loc 1 1776 32 discriminator 1 view .LVU595
 2166              		.loc 1 1780 3 discriminator 1 view .LVU596
 2167              		.loc 1 1780 36 is_stmt 0 discriminator 1 view .LVU597
 2168 0006 1D4B     		ldr	r3, .L174
 2169 0008 1B68     		ldr	r3, [r3]
 2170              		.loc 1 1780 25 discriminator 1 view .LVU598
 2171 000a 8342     		cmp	r3, r0
 2172 000c 07D0     		beq	.L165
 2173              		.loc 1 1782 4 is_stmt 1 view .LVU599
 2174 000e 1C4B     		ldr	r3, .L174+4
 2175 0010 9847     		blx	r3
 2176              	.LVL165:
 2177              		.loc 1 1784 5 view .LVU600
 2178              		.loc 1 1784 9 is_stmt 0 view .LVU601
 2179 0012 2046     		mov	r0, r4
 2180 0014 1B4B     		ldr	r3, .L174+8
 2181 0016 9847     		blx	r3
 2182              	.LVL166:
 2183              		.loc 1 1784 7 view .LVU602
 2184 0018 58B9     		cbnz	r0, .L173
 2185              	.L169:
 2186              		.loc 1 1808 30 is_stmt 1 view .LVU603
 2187              		.loc 1 1811 4 view .LVU604
 2188 001a 1B4B     		ldr	r3, .L174+12
 2189 001c 9847     		blx	r3
 2190              	.LVL167:
 2191              		.loc 1 1815 28 view .LVU605
 2192              	.L165:
 2193              		.loc 1 1817 2 is_stmt 0 view .LVU606
 2194 001e 38BD     		pop	{r3, r4, r5, pc}
 2195              	.LVL168:
 2196              	.L172:
 2197              		.loc 1 1776 3 is_stmt 1 view .LVU607
 2198              	.LBB139:
 2199              	.LBI139:
ARM GAS  C:\Users\Test\AppData\Local\Temp\ccYEQElh.s 			page 39


 2200              		.loc 2 191 30 view .LVU608
 2201              	.LBB140:
 2202              		.loc 2 193 1 view .LVU609
 2203              		.loc 2 195 2 view .LVU610
 2204              		.syntax unified
 2205              	@ 195 "Middlewares/Third_Party/FreeRTOS/Source/portable/GCC/ARM_CM3/portmacro.h" 1
 2206 0020 4FF05003 			mov r3, #80												
 2207 0024 83F31188 		msr basepri, r3											
 2208 0028 BFF36F8F 		isb														
 2209 002c BFF34F8F 		dsb														
 2210              	
 2211              	@ 0 "" 2
 2212              	.LVL169:
 2213              		.thumb
 2214              		.syntax unified
 2215              	.L167:
 2216              		.loc 2 195 2 is_stmt 0 view .LVU611
 2217              	.LBE140:
 2218              	.LBE139:
 2219              		.loc 1 1776 3 is_stmt 1 discriminator 1 view .LVU612
 2220              		.loc 1 1776 3 discriminator 1 view .LVU613
 2221              		.loc 1 1776 3 discriminator 1 view .LVU614
 2222 0030 FEE7     		b	.L167
 2223              	.LVL170:
 2224              	.L173:
 2225              		.loc 1 1786 31 view .LVU615
 2226              		.loc 1 1790 6 view .LVU616
 2227              		.loc 1 1790 15 is_stmt 0 view .LVU617
 2228 0032 251D     		adds	r5, r4, #4
 2229 0034 2846     		mov	r0, r5
 2230 0036 154B     		ldr	r3, .L174+16
 2231 0038 9847     		blx	r3
 2232              	.LVL171:
 2233              		.loc 1 1791 6 is_stmt 1 view .LVU618
 2234              		.loc 1 1791 6 view .LVU619
 2235 003a E06A     		ldr	r0, [r4, #44]
 2236 003c 144B     		ldr	r3, .L174+20
 2237 003e 1B68     		ldr	r3, [r3]
 2238 0040 9842     		cmp	r0, r3
 2239 0042 01D9     		bls	.L170
 2240              		.loc 1 1791 6 discriminator 1 view .LVU620
 2241 0044 124B     		ldr	r3, .L174+20
 2242 0046 1860     		str	r0, [r3]
 2243              	.L170:
 2244              		.loc 1 1791 6 discriminator 3 view .LVU621
 2245              		.loc 1 1791 6 discriminator 3 view .LVU622
 2246 0048 00EB8000 		add	r0, r0, r0, lsl #2
 2247 004c 2946     		mov	r1, r5
 2248 004e 114B     		ldr	r3, .L174+24
 2249 0050 03EB8000 		add	r0, r3, r0, lsl #2
 2250 0054 104B     		ldr	r3, .L174+28
 2251 0056 9847     		blx	r3
 2252              	.LVL172:
 2253              		.loc 1 1791 36 discriminator 3 view .LVU623
 2254              		.loc 1 1794 6 discriminator 3 view .LVU624
 2255              		.loc 1 1794 15 is_stmt 0 discriminator 3 view .LVU625
 2256 0058 E26A     		ldr	r2, [r4, #44]
ARM GAS  C:\Users\Test\AppData\Local\Temp\ccYEQElh.s 			page 40


 2257              		.loc 1 1794 43 discriminator 3 view .LVU626
 2258 005a 084B     		ldr	r3, .L174
 2259 005c 1B68     		ldr	r3, [r3]
 2260 005e DB6A     		ldr	r3, [r3, #44]
 2261              		.loc 1 1794 8 discriminator 3 view .LVU627
 2262 0060 9A42     		cmp	r2, r3
 2263 0062 DAD3     		bcc	.L169
 2264              		.loc 1 1799 7 is_stmt 1 view .LVU628
 2265 0064 4FF0E023 		mov	r3, #-536813568
 2266 0068 4FF08052 		mov	r2, #268435456
 2267 006c C3F8042D 		str	r2, [r3, #3332]
 2268              		.loc 1 1799 7 view .LVU629
 2269              		.syntax unified
 2270              	@ 1799 "Middlewares/Third_Party/FreeRTOS/Source/tasks.c" 1
 2271 0070 BFF34F8F 		dsb
 2272              	@ 0 "" 2
 2273              		.loc 1 1799 7 view .LVU630
 2274              	@ 1799 "Middlewares/Third_Party/FreeRTOS/Source/tasks.c" 1
 2275 0074 BFF36F8F 		isb
 2276              	@ 0 "" 2
 2277              		.loc 1 1799 38 view .LVU631
 2278              		.thumb
 2279              		.syntax unified
 2280 0078 CFE7     		b	.L169
 2281              	.L175:
 2282 007a 00BF     		.align	2
 2283              	.L174:
 2284 007c 00000000 		.word	.LANCHOR10
 2285 0080 00000000 		.word	vPortEnterCritical
 2286 0084 00000000 		.word	prvTaskIsTaskSuspended
 2287 0088 00000000 		.word	vPortExitCritical
 2288 008c 00000000 		.word	uxListRemove
 2289 0090 00000000 		.word	.LANCHOR13
 2290 0094 00000000 		.word	.LANCHOR4
 2291 0098 00000000 		.word	vListInsertEnd
 2292              		.cfi_endproc
 2293              	.LFE17:
 2295              		.section	.text.xTaskResumeFromISR,"ax",%progbits
 2296              		.align	1
 2297              		.global	xTaskResumeFromISR
 2298              		.syntax unified
 2299              		.thumb
 2300              		.thumb_func
 2301              		.fpu softvfp
 2303              	xTaskResumeFromISR:
 2304              	.LVL173:
 2305              	.LFB18:
 2306              		.loc 1 1826 2 view -0
 2307              		.cfi_startproc
 2308              		@ args = 0, pretend = 0, frame = 0
 2309              		@ frame_needed = 0, uses_anonymous_args = 0
 2310              		.loc 1 1826 2 is_stmt 0 view .LVU633
 2311 0000 F8B5     		push	{r3, r4, r5, r6, r7, lr}
 2312              	.LCFI21:
 2313              		.cfi_def_cfa_offset 24
 2314              		.cfi_offset 3, -24
 2315              		.cfi_offset 4, -20
ARM GAS  C:\Users\Test\AppData\Local\Temp\ccYEQElh.s 			page 41


 2316              		.cfi_offset 5, -16
 2317              		.cfi_offset 6, -12
 2318              		.cfi_offset 7, -8
 2319              		.cfi_offset 14, -4
 2320              		.loc 1 1827 2 is_stmt 1 view .LVU634
 2321              	.LVL174:
 2322              		.loc 1 1828 2 view .LVU635
 2323              		.loc 1 1829 2 view .LVU636
 2324              		.loc 1 1831 3 view .LVU637
 2325 0002 0028     		cmp	r0, #0
 2326 0004 32D0     		beq	.L185
 2327 0006 0446     		mov	r4, r0
 2328              		.loc 1 1831 32 discriminator 2 view .LVU638
 2329              		.loc 1 1849 3 discriminator 2 view .LVU639
 2330 0008 214B     		ldr	r3, .L186
 2331 000a 9847     		blx	r3
 2332              	.LVL175:
 2333              		.loc 1 1851 3 discriminator 2 view .LVU640
 2334              	.LBB141:
 2335              	.LBI141:
 2336              		.loc 2 207 34 discriminator 2 view .LVU641
 2337              	.LBB142:
 2338              		.loc 2 209 1 discriminator 2 view .LVU642
 2339              		.loc 2 211 2 discriminator 2 view .LVU643
 2340              		.syntax unified
 2341              	@ 211 "Middlewares/Third_Party/FreeRTOS/Source/portable/GCC/ARM_CM3/portmacro.h" 1
 2342 000c EFF31186 			mrs r6, basepri											
 2343 0010 4FF05003 		mov r3, #80												
 2344 0014 83F31188 		msr basepri, r3											
 2345 0018 BFF36F8F 		isb														
 2346 001c BFF34F8F 		dsb														
 2347              	
 2348              	@ 0 "" 2
 2349              	.LVL176:
 2350              		.loc 2 223 2 discriminator 2 view .LVU644
 2351              		.loc 2 223 2 is_stmt 0 discriminator 2 view .LVU645
 2352              		.thumb
 2353              		.syntax unified
 2354              	.LBE142:
 2355              	.LBE141:
 2356              		.loc 1 1853 4 is_stmt 1 discriminator 2 view .LVU646
 2357              		.loc 1 1853 8 is_stmt 0 discriminator 2 view .LVU647
 2358 0020 2046     		mov	r0, r4
 2359 0022 1C4B     		ldr	r3, .L186+4
 2360 0024 9847     		blx	r3
 2361              	.LVL177:
 2362              		.loc 1 1853 6 discriminator 2 view .LVU648
 2363 0026 0546     		mov	r5, r0
 2364 0028 E0B1     		cbz	r0, .L179
 2365              		.loc 1 1855 39 is_stmt 1 view .LVU649
 2366              		.loc 1 1858 5 view .LVU650
 2367              		.loc 1 1858 30 is_stmt 0 view .LVU651
 2368 002a 1B4B     		ldr	r3, .L186+8
 2369 002c 1B68     		ldr	r3, [r3]
 2370              		.loc 1 1858 7 view .LVU652
 2371 002e 43BB     		cbnz	r3, .L180
 2372              		.loc 1 1862 6 is_stmt 1 view .LVU653
ARM GAS  C:\Users\Test\AppData\Local\Temp\ccYEQElh.s 			page 42


 2373              		.loc 1 1862 15 is_stmt 0 view .LVU654
 2374 0030 E26A     		ldr	r2, [r4, #44]
 2375              		.loc 1 1862 43 view .LVU655
 2376 0032 1A4B     		ldr	r3, .L186+12
 2377 0034 1B68     		ldr	r3, [r3]
 2378 0036 DB6A     		ldr	r3, [r3, #44]
 2379              		.loc 1 1862 8 view .LVU656
 2380 0038 9A42     		cmp	r2, r3
 2381 003a 20D2     		bcs	.L183
 2382              		.loc 1 1827 13 view .LVU657
 2383 003c 0025     		movs	r5, #0
 2384              	.L181:
 2385              	.LVL178:
 2386              		.loc 1 1868 31 is_stmt 1 view .LVU658
 2387              		.loc 1 1871 6 view .LVU659
 2388              		.loc 1 1871 15 is_stmt 0 view .LVU660
 2389 003e 271D     		adds	r7, r4, #4
 2390 0040 3846     		mov	r0, r7
 2391 0042 174B     		ldr	r3, .L186+16
 2392 0044 9847     		blx	r3
 2393              	.LVL179:
 2394              		.loc 1 1872 6 is_stmt 1 view .LVU661
 2395              		.loc 1 1872 6 view .LVU662
 2396 0046 E06A     		ldr	r0, [r4, #44]
 2397 0048 164B     		ldr	r3, .L186+20
 2398 004a 1B68     		ldr	r3, [r3]
 2399 004c 9842     		cmp	r0, r3
 2400 004e 01D9     		bls	.L182
 2401              		.loc 1 1872 6 discriminator 1 view .LVU663
 2402 0050 144B     		ldr	r3, .L186+20
 2403 0052 1860     		str	r0, [r3]
 2404              	.L182:
 2405              		.loc 1 1872 6 discriminator 3 view .LVU664
 2406              		.loc 1 1872 6 discriminator 3 view .LVU665
 2407 0054 00EB8000 		add	r0, r0, r0, lsl #2
 2408 0058 3946     		mov	r1, r7
 2409 005a 134B     		ldr	r3, .L186+24
 2410 005c 03EB8000 		add	r0, r3, r0, lsl #2
 2411 0060 124B     		ldr	r3, .L186+28
 2412 0062 9847     		blx	r3
 2413              	.LVL180:
 2414              		.loc 1 1872 36 discriminator 3 view .LVU666
 2415              	.L179:
 2416              		.loc 1 1884 29 view .LVU667
 2417              		.loc 1 1887 3 view .LVU668
 2418              	.LBB143:
 2419              	.LBI143:
 2420              		.loc 2 227 30 view .LVU669
 2421              	.LBB144:
 2422              		.loc 2 229 2 view .LVU670
 2423              		.syntax unified
 2424              	@ 229 "Middlewares/Third_Party/FreeRTOS/Source/portable/GCC/ARM_CM3/portmacro.h" 1
 2425 0064 86F31188 			msr basepri, r6	
 2426              	@ 0 "" 2
 2427              	.LVL181:
 2428              		.loc 2 229 2 is_stmt 0 view .LVU671
 2429              		.thumb
ARM GAS  C:\Users\Test\AppData\Local\Temp\ccYEQElh.s 			page 43


 2430              		.syntax unified
 2431              	.LBE144:
 2432              	.LBE143:
 2433              		.loc 1 1889 3 is_stmt 1 view .LVU672
 2434              		.loc 1 1890 2 is_stmt 0 view .LVU673
 2435 0068 2846     		mov	r0, r5
 2436 006a F8BD     		pop	{r3, r4, r5, r6, r7, pc}
 2437              	.LVL182:
 2438              	.L185:
 2439              		.loc 1 1831 3 is_stmt 1 view .LVU674
 2440              	.LBB145:
 2441              	.LBI145:
 2442              		.loc 2 191 30 view .LVU675
 2443              	.LBB146:
 2444              		.loc 2 193 1 view .LVU676
 2445              		.loc 2 195 2 view .LVU677
 2446              		.syntax unified
 2447              	@ 195 "Middlewares/Third_Party/FreeRTOS/Source/portable/GCC/ARM_CM3/portmacro.h" 1
 2448 006c 4FF05003 			mov r3, #80												
 2449 0070 83F31188 		msr basepri, r3											
 2450 0074 BFF36F8F 		isb														
 2451 0078 BFF34F8F 		dsb														
 2452              	
 2453              	@ 0 "" 2
 2454              	.LVL183:
 2455              		.thumb
 2456              		.syntax unified
 2457              	.L178:
 2458              		.loc 2 195 2 is_stmt 0 view .LVU678
 2459              	.LBE146:
 2460              	.LBE145:
 2461              		.loc 1 1831 3 is_stmt 1 discriminator 1 view .LVU679
 2462              		.loc 1 1831 3 discriminator 1 view .LVU680
 2463              		.loc 1 1831 3 discriminator 1 view .LVU681
 2464 007c FEE7     		b	.L178
 2465              	.LVL184:
 2466              	.L183:
 2467              		.loc 1 1864 22 is_stmt 0 view .LVU682
 2468 007e 0125     		movs	r5, #1
 2469 0080 DDE7     		b	.L181
 2470              	.L180:
 2471              		.loc 1 1879 6 is_stmt 1 view .LVU683
 2472 0082 04F11801 		add	r1, r4, #24
 2473 0086 0A48     		ldr	r0, .L186+32
 2474 0088 084B     		ldr	r3, .L186+28
 2475 008a 9847     		blx	r3
 2476              	.LVL185:
 2477              		.loc 1 1827 13 is_stmt 0 view .LVU684
 2478 008c 0025     		movs	r5, #0
 2479 008e E9E7     		b	.L179
 2480              	.L187:
 2481              		.align	2
 2482              	.L186:
 2483 0090 00000000 		.word	vPortValidateInterruptPriority
 2484 0094 00000000 		.word	prvTaskIsTaskSuspended
 2485 0098 00000000 		.word	.LANCHOR16
 2486 009c 00000000 		.word	.LANCHOR10
ARM GAS  C:\Users\Test\AppData\Local\Temp\ccYEQElh.s 			page 44


 2487 00a0 00000000 		.word	uxListRemove
 2488 00a4 00000000 		.word	.LANCHOR13
 2489 00a8 00000000 		.word	.LANCHOR4
 2490 00ac 00000000 		.word	vListInsertEnd
 2491 00b0 00000000 		.word	.LANCHOR1
 2492              		.cfi_endproc
 2493              	.LFE18:
 2495              		.section	.rodata.vTaskStartScheduler.str1.4,"aMS",%progbits,1
 2496              		.align	2
 2497              	.LC0:
 2498 0000 49444C45 		.ascii	"IDLE\000"
 2498      00
 2499              		.section	.text.vTaskStartScheduler,"ax",%progbits
 2500              		.align	1
 2501              		.global	vTaskStartScheduler
 2502              		.syntax unified
 2503              		.thumb
 2504              		.thumb_func
 2505              		.fpu softvfp
 2507              	vTaskStartScheduler:
 2508              	.LFB19:
 2509              		.loc 1 1896 1 is_stmt 1 view -0
 2510              		.cfi_startproc
 2511              		@ args = 0, pretend = 0, frame = 16
 2512              		@ frame_needed = 0, uses_anonymous_args = 0
 2513 0000 10B5     		push	{r4, lr}
 2514              	.LCFI22:
 2515              		.cfi_def_cfa_offset 8
 2516              		.cfi_offset 4, -8
 2517              		.cfi_offset 14, -4
 2518 0002 88B0     		sub	sp, sp, #32
 2519              	.LCFI23:
 2520              		.cfi_def_cfa_offset 40
 2521              		.loc 1 1897 1 view .LVU686
 2522              	.LBB147:
 2523              		.loc 1 1902 3 view .LVU687
 2524              		.loc 1 1902 17 is_stmt 0 view .LVU688
 2525 0004 0024     		movs	r4, #0
 2526 0006 0594     		str	r4, [sp, #20]
 2527              		.loc 1 1903 3 is_stmt 1 view .LVU689
 2528              		.loc 1 1903 16 is_stmt 0 view .LVU690
 2529 0008 0694     		str	r4, [sp, #24]
 2530              		.loc 1 1904 3 is_stmt 1 view .LVU691
 2531              		.loc 1 1908 3 view .LVU692
 2532 000a 07AA     		add	r2, sp, #28
 2533 000c 06A9     		add	r1, sp, #24
 2534 000e 05A8     		add	r0, sp, #20
 2535 0010 1C4B     		ldr	r3, .L197
 2536 0012 9847     		blx	r3
 2537              	.LVL186:
 2538              		.loc 1 1909 3 view .LVU693
 2539              		.loc 1 1909 21 is_stmt 0 view .LVU694
 2540 0014 059B     		ldr	r3, [sp, #20]
 2541 0016 0293     		str	r3, [sp, #8]
 2542 0018 069B     		ldr	r3, [sp, #24]
 2543 001a 0193     		str	r3, [sp, #4]
 2544 001c 0094     		str	r4, [sp]
ARM GAS  C:\Users\Test\AppData\Local\Temp\ccYEQElh.s 			page 45


 2545 001e 2346     		mov	r3, r4
 2546 0020 079A     		ldr	r2, [sp, #28]
 2547 0022 1949     		ldr	r1, .L197+4
 2548 0024 1948     		ldr	r0, .L197+8
 2549 0026 1A4C     		ldr	r4, .L197+12
 2550 0028 A047     		blx	r4
 2551              	.LVL187:
 2552              		.loc 1 1909 19 view .LVU695
 2553 002a 1A4B     		ldr	r3, .L197+16
 2554 002c 1860     		str	r0, [r3]
 2555              		.loc 1 1917 3 is_stmt 1 view .LVU696
 2556              		.loc 1 1917 5 is_stmt 0 view .LVU697
 2557 002e 40B1     		cbz	r0, .L189
 2558              	.LVL188:
 2559              		.loc 1 1917 5 view .LVU698
 2560              	.LBE147:
 2561              		.loc 1 1940 3 is_stmt 1 view .LVU699
 2562              		.loc 1 1942 4 view .LVU700
 2563              		.loc 1 1942 14 is_stmt 0 view .LVU701
 2564 0030 194B     		ldr	r3, .L197+20
 2565 0032 9847     		blx	r3
 2566              	.LVL189:
 2567              	.L190:
 2568              		.loc 1 1946 28 is_stmt 1 view .LVU702
 2569              		.loc 1 1951 2 view .LVU703
 2570              		.loc 1 1951 4 is_stmt 0 view .LVU704
 2571 0034 0128     		cmp	r0, #1
 2572 0036 06D0     		beq	.L195
 2573              		.loc 1 2006 3 is_stmt 1 view .LVU705
 2574 0038 B0F1FF3F 		cmp	r0, #-1
 2575 003c 18D0     		beq	.L196
 2576              	.LVL190:
 2577              	.L188:
 2578              		.loc 1 2012 1 is_stmt 0 view .LVU706
 2579 003e 08B0     		add	sp, sp, #32
 2580              	.LCFI24:
 2581              		.cfi_remember_state
 2582              		.cfi_def_cfa_offset 8
 2583              		@ sp needed
 2584 0040 10BD     		pop	{r4, pc}
 2585              	.L189:
 2586              	.LCFI25:
 2587              		.cfi_restore_state
 2588              	.LBB148:
 2589              		.loc 1 1923 4 is_stmt 1 view .LVU707
 2590              	.LVL191:
 2591              		.loc 1 1923 4 is_stmt 0 view .LVU708
 2592              	.LBE148:
 2593              		.loc 1 1940 3 is_stmt 1 view .LVU709
 2594              	.LBB149:
 2595              		.loc 1 1923 12 is_stmt 0 view .LVU710
 2596 0042 0020     		movs	r0, #0
 2597 0044 F6E7     		b	.L190
 2598              	.LVL192:
 2599              	.L195:
 2600              		.loc 1 1923 12 view .LVU711
 2601              	.LBE149:
ARM GAS  C:\Users\Test\AppData\Local\Temp\ccYEQElh.s 			page 46


 2602              		.loc 1 1967 3 is_stmt 1 view .LVU712
 2603              	.LBB150:
 2604              	.LBI150:
 2605              		.loc 2 191 30 view .LVU713
 2606              	.LBB151:
 2607              		.loc 2 193 1 view .LVU714
 2608              		.loc 2 195 2 view .LVU715
 2609              		.syntax unified
 2610              	@ 195 "Middlewares/Third_Party/FreeRTOS/Source/portable/GCC/ARM_CM3/portmacro.h" 1
 2611 0046 4FF05003 			mov r3, #80												
 2612 004a 83F31188 		msr basepri, r3											
 2613 004e BFF36F8F 		isb														
 2614 0052 BFF34F8F 		dsb														
 2615              	
 2616              	@ 0 "" 2
 2617              		.thumb
 2618              		.syntax unified
 2619              	.LBE151:
 2620              	.LBE150:
 2621              		.loc 1 1977 3 view .LVU716
 2622              		.loc 1 1977 24 is_stmt 0 view .LVU717
 2623 0056 114B     		ldr	r3, .L197+24
 2624 0058 4FF0FF32 		mov	r2, #-1
 2625 005c 1A60     		str	r2, [r3]
 2626              		.loc 1 1978 3 is_stmt 1 view .LVU718
 2627              		.loc 1 1978 21 is_stmt 0 view .LVU719
 2628 005e 104B     		ldr	r3, .L197+28
 2629 0060 0122     		movs	r2, #1
 2630 0062 1A60     		str	r2, [r3]
 2631              		.loc 1 1979 3 is_stmt 1 view .LVU720
 2632              		.loc 1 1979 14 is_stmt 0 view .LVU721
 2633 0064 0F4B     		ldr	r3, .L197+32
 2634 0066 0022     		movs	r2, #0
 2635 0068 1A60     		str	r2, [r3]
 2636              		.loc 1 1987 43 is_stmt 1 view .LVU722
 2637              		.loc 1 1991 3 view .LVU723
 2638              		.loc 1 1991 7 is_stmt 0 view .LVU724
 2639 006a 0F4B     		ldr	r3, .L197+36
 2640 006c 9847     		blx	r3
 2641              	.LVL193:
 2642              		.loc 1 1991 7 view .LVU725
 2643 006e E6E7     		b	.L188
 2644              	.LVL194:
 2645              	.L196:
 2646              		.loc 1 2006 3 is_stmt 1 view .LVU726
 2647              	.LBB152:
 2648              	.LBI152:
 2649              		.loc 2 191 30 view .LVU727
 2650              	.LBB153:
 2651              		.loc 2 193 1 view .LVU728
 2652              		.loc 2 195 2 view .LVU729
 2653              		.syntax unified
 2654              	@ 195 "Middlewares/Third_Party/FreeRTOS/Source/portable/GCC/ARM_CM3/portmacro.h" 1
 2655 0070 4FF05003 			mov r3, #80												
 2656 0074 83F31188 		msr basepri, r3											
 2657 0078 BFF36F8F 		isb														
 2658 007c BFF34F8F 		dsb														
ARM GAS  C:\Users\Test\AppData\Local\Temp\ccYEQElh.s 			page 47


 2659              	
 2660              	@ 0 "" 2
 2661              	.LVL195:
 2662              		.thumb
 2663              		.syntax unified
 2664              	.L193:
 2665              		.loc 2 195 2 is_stmt 0 view .LVU730
 2666              	.LBE153:
 2667              	.LBE152:
 2668              		.loc 1 2006 3 is_stmt 1 discriminator 2 view .LVU731
 2669              		.loc 1 2006 3 discriminator 2 view .LVU732
 2670              		.loc 1 2006 3 discriminator 2 view .LVU733
 2671 0080 FEE7     		b	.L193
 2672              	.L198:
 2673 0082 00BF     		.align	2
 2674              	.L197:
 2675 0084 00000000 		.word	vApplicationGetIdleTaskMemory
 2676 0088 00000000 		.word	.LC0
 2677 008c 00000000 		.word	prvIdleTask
 2678 0090 00000000 		.word	xTaskCreateStatic
 2679 0094 00000000 		.word	.LANCHOR17
 2680 0098 00000000 		.word	xTimerCreateTimerTask
 2681 009c 00000000 		.word	.LANCHOR3
 2682 00a0 00000000 		.word	.LANCHOR11
 2683 00a4 00000000 		.word	.LANCHOR15
 2684 00a8 00000000 		.word	xPortStartScheduler
 2685              		.cfi_endproc
 2686              	.LFE19:
 2688              		.section	.text.vTaskEndScheduler,"ax",%progbits
 2689              		.align	1
 2690              		.global	vTaskEndScheduler
 2691              		.syntax unified
 2692              		.thumb
 2693              		.thumb_func
 2694              		.fpu softvfp
 2696              	vTaskEndScheduler:
 2697              	.LFB20:
 2698              		.loc 1 2016 1 view -0
 2699              		.cfi_startproc
 2700              		@ args = 0, pretend = 0, frame = 0
 2701              		@ frame_needed = 0, uses_anonymous_args = 0
 2702 0000 08B5     		push	{r3, lr}
 2703              	.LCFI26:
 2704              		.cfi_def_cfa_offset 8
 2705              		.cfi_offset 3, -8
 2706              		.cfi_offset 14, -4
 2707              		.loc 1 2020 2 view .LVU735
 2708              	.LBB154:
 2709              	.LBI154:
 2710              		.loc 2 191 30 view .LVU736
 2711              	.LBB155:
 2712              		.loc 2 193 1 view .LVU737
 2713              		.loc 2 195 2 view .LVU738
 2714              		.syntax unified
 2715              	@ 195 "Middlewares/Third_Party/FreeRTOS/Source/portable/GCC/ARM_CM3/portmacro.h" 1
 2716 0002 4FF05003 			mov r3, #80												
 2717 0006 83F31188 		msr basepri, r3											
ARM GAS  C:\Users\Test\AppData\Local\Temp\ccYEQElh.s 			page 48


 2718 000a BFF36F8F 		isb														
 2719 000e BFF34F8F 		dsb														
 2720              	
 2721              	@ 0 "" 2
 2722              		.thumb
 2723              		.syntax unified
 2724              	.LBE155:
 2725              	.LBE154:
 2726              		.loc 1 2021 2 view .LVU739
 2727              		.loc 1 2021 20 is_stmt 0 view .LVU740
 2728 0012 034B     		ldr	r3, .L201
 2729 0014 0022     		movs	r2, #0
 2730 0016 1A60     		str	r2, [r3]
 2731              		.loc 1 2022 2 is_stmt 1 view .LVU741
 2732 0018 024B     		ldr	r3, .L201+4
 2733 001a 9847     		blx	r3
 2734              	.LVL196:
 2735              		.loc 1 2023 1 is_stmt 0 view .LVU742
 2736 001c 08BD     		pop	{r3, pc}
 2737              	.L202:
 2738 001e 00BF     		.align	2
 2739              	.L201:
 2740 0020 00000000 		.word	.LANCHOR11
 2741 0024 00000000 		.word	vPortEndScheduler
 2742              		.cfi_endproc
 2743              	.LFE20:
 2745              		.section	.text.vTaskSuspendAll,"ax",%progbits
 2746              		.align	1
 2747              		.global	vTaskSuspendAll
 2748              		.syntax unified
 2749              		.thumb
 2750              		.thumb_func
 2751              		.fpu softvfp
 2753              	vTaskSuspendAll:
 2754              	.LFB21:
 2755              		.loc 1 2027 1 is_stmt 1 view -0
 2756              		.cfi_startproc
 2757              		@ args = 0, pretend = 0, frame = 0
 2758              		@ frame_needed = 0, uses_anonymous_args = 0
 2759              		@ link register save eliminated.
 2760              		.loc 1 2032 2 view .LVU744
 2761 0000 024A     		ldr	r2, .L204
 2762 0002 1368     		ldr	r3, [r2]
 2763 0004 0133     		adds	r3, r3, #1
 2764 0006 1360     		str	r3, [r2]
 2765              		.loc 1 2033 1 is_stmt 0 view .LVU745
 2766 0008 7047     		bx	lr
 2767              	.L205:
 2768 000a 00BF     		.align	2
 2769              	.L204:
 2770 000c 00000000 		.word	.LANCHOR16
 2771              		.cfi_endproc
 2772              	.LFE21:
 2774              		.section	.text.xTaskGetTickCount,"ax",%progbits
 2775              		.align	1
 2776              		.global	xTaskGetTickCount
 2777              		.syntax unified
ARM GAS  C:\Users\Test\AppData\Local\Temp\ccYEQElh.s 			page 49


 2778              		.thumb
 2779              		.thumb_func
 2780              		.fpu softvfp
 2782              	xTaskGetTickCount:
 2783              	.LFB23:
 2784              		.loc 1 2210 1 is_stmt 1 view -0
 2785              		.cfi_startproc
 2786              		@ args = 0, pretend = 0, frame = 0
 2787              		@ frame_needed = 0, uses_anonymous_args = 0
 2788              		@ link register save eliminated.
 2789              		.loc 1 2211 1 view .LVU747
 2790              		.loc 1 2214 32 view .LVU748
 2791              		.loc 1 2216 3 view .LVU749
 2792              		.loc 1 2216 10 is_stmt 0 view .LVU750
 2793 0000 014B     		ldr	r3, .L207
 2794 0002 1868     		ldr	r0, [r3]
 2795              	.LVL197:
 2796              		.loc 1 2218 31 is_stmt 1 view .LVU751
 2797              		.loc 1 2220 2 view .LVU752
 2798              		.loc 1 2221 1 is_stmt 0 view .LVU753
 2799 0004 7047     		bx	lr
 2800              	.L208:
 2801 0006 00BF     		.align	2
 2802              	.L207:
 2803 0008 00000000 		.word	.LANCHOR15
 2804              		.cfi_endproc
 2805              	.LFE23:
 2807              		.section	.text.xTaskGetTickCountFromISR,"ax",%progbits
 2808              		.align	1
 2809              		.global	xTaskGetTickCountFromISR
 2810              		.syntax unified
 2811              		.thumb
 2812              		.thumb_func
 2813              		.fpu softvfp
 2815              	xTaskGetTickCountFromISR:
 2816              	.LFB24:
 2817              		.loc 1 2225 1 is_stmt 1 view -0
 2818              		.cfi_startproc
 2819              		@ args = 0, pretend = 0, frame = 0
 2820              		@ frame_needed = 0, uses_anonymous_args = 0
 2821 0000 08B5     		push	{r3, lr}
 2822              	.LCFI27:
 2823              		.cfi_def_cfa_offset 8
 2824              		.cfi_offset 3, -8
 2825              		.cfi_offset 14, -4
 2826              		.loc 1 2226 1 view .LVU755
 2827              		.loc 1 2227 1 view .LVU756
 2828              		.loc 1 2243 2 view .LVU757
 2829 0002 024B     		ldr	r3, .L211
 2830 0004 9847     		blx	r3
 2831              	.LVL198:
 2832              		.loc 1 2245 2 view .LVU758
 2833              		.loc 1 2247 3 view .LVU759
 2834              		.loc 1 2247 11 is_stmt 0 view .LVU760
 2835 0006 024B     		ldr	r3, .L211+4
 2836 0008 1868     		ldr	r0, [r3]
 2837              	.LVL199:
ARM GAS  C:\Users\Test\AppData\Local\Temp\ccYEQElh.s 			page 50


 2838              		.loc 1 2249 2 is_stmt 1 view .LVU761
 2839              		.loc 1 2251 2 view .LVU762
 2840              		.loc 1 2252 1 is_stmt 0 view .LVU763
 2841 000a 08BD     		pop	{r3, pc}
 2842              	.L212:
 2843              		.align	2
 2844              	.L211:
 2845 000c 00000000 		.word	vPortValidateInterruptPriority
 2846 0010 00000000 		.word	.LANCHOR15
 2847              		.cfi_endproc
 2848              	.LFE24:
 2850              		.section	.text.uxTaskGetNumberOfTasks,"ax",%progbits
 2851              		.align	1
 2852              		.global	uxTaskGetNumberOfTasks
 2853              		.syntax unified
 2854              		.thumb
 2855              		.thumb_func
 2856              		.fpu softvfp
 2858              	uxTaskGetNumberOfTasks:
 2859              	.LFB25:
 2860              		.loc 1 2256 1 is_stmt 1 view -0
 2861              		.cfi_startproc
 2862              		@ args = 0, pretend = 0, frame = 0
 2863              		@ frame_needed = 0, uses_anonymous_args = 0
 2864              		@ link register save eliminated.
 2865              		.loc 1 2259 2 view .LVU765
 2866              		.loc 1 2259 9 is_stmt 0 view .LVU766
 2867 0000 014B     		ldr	r3, .L214
 2868 0002 1868     		ldr	r0, [r3]
 2869              		.loc 1 2260 1 view .LVU767
 2870 0004 7047     		bx	lr
 2871              	.L215:
 2872 0006 00BF     		.align	2
 2873              	.L214:
 2874 0008 00000000 		.word	.LANCHOR9
 2875              		.cfi_endproc
 2876              	.LFE25:
 2878              		.section	.text.pcTaskGetName,"ax",%progbits
 2879              		.align	1
 2880              		.global	pcTaskGetName
 2881              		.syntax unified
 2882              		.thumb
 2883              		.thumb_func
 2884              		.fpu softvfp
 2886              	pcTaskGetName:
 2887              	.LVL200:
 2888              	.LFB26:
 2889              		.loc 1 2264 1 is_stmt 1 view -0
 2890              		.cfi_startproc
 2891              		@ args = 0, pretend = 0, frame = 0
 2892              		@ frame_needed = 0, uses_anonymous_args = 0
 2893              		@ link register save eliminated.
 2894              		.loc 1 2265 1 view .LVU769
 2895              		.loc 1 2269 2 view .LVU770
 2896              		.loc 1 2269 10 is_stmt 0 view .LVU771
 2897 0000 0346     		mov	r3, r0
 2898 0002 18B1     		cbz	r0, .L220
ARM GAS  C:\Users\Test\AppData\Local\Temp\ccYEQElh.s 			page 51


 2899              	.LVL201:
 2900              	.L217:
 2901              		.loc 1 2270 2 is_stmt 1 discriminator 4 view .LVU772
 2902 0004 2BB1     		cbz	r3, .L221
 2903              		.loc 1 2270 23 discriminator 2 view .LVU773
 2904              		.loc 1 2271 2 discriminator 2 view .LVU774
 2905              		.loc 1 2272 1 is_stmt 0 discriminator 2 view .LVU775
 2906 0006 03F13400 		add	r0, r3, #52
 2907 000a 7047     		bx	lr
 2908              	.LVL202:
 2909              	.L220:
 2910              		.loc 1 2269 10 discriminator 1 view .LVU776
 2911 000c 054B     		ldr	r3, .L222
 2912 000e 1B68     		ldr	r3, [r3]
 2913              	.LVL203:
 2914              		.loc 1 2269 10 discriminator 1 view .LVU777
 2915 0010 F8E7     		b	.L217
 2916              	.LVL204:
 2917              	.L221:
 2918              		.loc 1 2270 2 is_stmt 1 view .LVU778
 2919              	.LBB156:
 2920              	.LBI156:
 2921              		.loc 2 191 30 view .LVU779
 2922              	.LBB157:
 2923              		.loc 2 193 1 view .LVU780
 2924              		.loc 2 195 2 view .LVU781
 2925              		.syntax unified
 2926              	@ 195 "Middlewares/Third_Party/FreeRTOS/Source/portable/GCC/ARM_CM3/portmacro.h" 1
 2927 0012 4FF05003 			mov r3, #80												
 2928 0016 83F31188 		msr basepri, r3											
 2929 001a BFF36F8F 		isb														
 2930 001e BFF34F8F 		dsb														
 2931              	
 2932              	@ 0 "" 2
 2933              	.LVL205:
 2934              		.thumb
 2935              		.syntax unified
 2936              	.L219:
 2937              		.loc 2 195 2 is_stmt 0 view .LVU782
 2938              	.LBE157:
 2939              	.LBE156:
 2940              		.loc 1 2270 2 is_stmt 1 discriminator 1 view .LVU783
 2941              		.loc 1 2270 2 discriminator 1 view .LVU784
 2942              		.loc 1 2270 2 discriminator 1 view .LVU785
 2943 0022 FEE7     		b	.L219
 2944              	.L223:
 2945              		.align	2
 2946              	.L222:
 2947 0024 00000000 		.word	.LANCHOR10
 2948              		.cfi_endproc
 2949              	.LFE26:
 2951              		.section	.text.xTaskIncrementTick,"ax",%progbits
 2952              		.align	1
 2953              		.global	xTaskIncrementTick
 2954              		.syntax unified
 2955              		.thumb
 2956              		.thumb_func
ARM GAS  C:\Users\Test\AppData\Local\Temp\ccYEQElh.s 			page 52


 2957              		.fpu softvfp
 2959              	xTaskIncrementTick:
 2960              	.LFB28:
 2961              		.loc 1 2584 1 view -0
 2962              		.cfi_startproc
 2963              		@ args = 0, pretend = 0, frame = 0
 2964              		@ frame_needed = 0, uses_anonymous_args = 0
 2965 0000 F8B5     		push	{r3, r4, r5, r6, r7, lr}
 2966              	.LCFI28:
 2967              		.cfi_def_cfa_offset 24
 2968              		.cfi_offset 3, -24
 2969              		.cfi_offset 4, -20
 2970              		.cfi_offset 5, -16
 2971              		.cfi_offset 6, -12
 2972              		.cfi_offset 7, -8
 2973              		.cfi_offset 14, -4
 2974              		.loc 1 2585 1 view .LVU787
 2975              		.loc 1 2586 1 view .LVU788
 2976              		.loc 1 2587 1 view .LVU789
 2977              	.LVL206:
 2978              		.loc 1 2592 40 view .LVU790
 2979              		.loc 1 2593 2 view .LVU791
 2980              		.loc 1 2593 27 is_stmt 0 view .LVU792
 2981 0002 3A4B     		ldr	r3, .L246
 2982 0004 1B68     		ldr	r3, [r3]
 2983              		.loc 1 2593 4 view .LVU793
 2984 0006 002B     		cmp	r3, #0
 2985 0008 64D1     		bne	.L225
 2986              	.LBB158:
 2987              		.loc 1 2597 3 is_stmt 1 view .LVU794
 2988              		.loc 1 2597 49 is_stmt 0 view .LVU795
 2989 000a 394B     		ldr	r3, .L246+4
 2990 000c 1D68     		ldr	r5, [r3]
 2991              		.loc 1 2597 20 view .LVU796
 2992 000e 0135     		adds	r5, r5, #1
 2993              	.LVL207:
 2994              		.loc 1 2601 3 is_stmt 1 view .LVU797
 2995              		.loc 1 2601 14 is_stmt 0 view .LVU798
 2996 0010 1D60     		str	r5, [r3]
 2997              		.loc 1 2603 3 is_stmt 1 view .LVU799
 2998              		.loc 1 2603 5 is_stmt 0 view .LVU800
 2999 0012 C5B9     		cbnz	r5, .L226
 3000              	.LBB159:
 3001              		.loc 1 2605 4 is_stmt 1 view .LVU801
 3002              		.loc 1 2605 4 view .LVU802
 3003 0014 374B     		ldr	r3, .L246+8
 3004 0016 1B68     		ldr	r3, [r3]
 3005 0018 1B68     		ldr	r3, [r3]
 3006 001a 43B1     		cbz	r3, .L227
 3007              		.loc 1 2605 4 view .LVU803
 3008              	.LBB160:
 3009              	.LBI160:
 3010              		.loc 2 191 30 view .LVU804
 3011              	.LBB161:
 3012              		.loc 2 193 1 view .LVU805
 3013              		.loc 2 195 2 view .LVU806
 3014              		.syntax unified
ARM GAS  C:\Users\Test\AppData\Local\Temp\ccYEQElh.s 			page 53


 3015              	@ 195 "Middlewares/Third_Party/FreeRTOS/Source/portable/GCC/ARM_CM3/portmacro.h" 1
 3016 001c 4FF05003 			mov r3, #80												
 3017 0020 83F31188 		msr basepri, r3											
 3018 0024 BFF36F8F 		isb														
 3019 0028 BFF34F8F 		dsb														
 3020              	
 3021              	@ 0 "" 2
 3022              	.LVL208:
 3023              		.thumb
 3024              		.syntax unified
 3025              	.L228:
 3026              		.loc 2 195 2 is_stmt 0 view .LVU807
 3027              	.LBE161:
 3028              	.LBE160:
 3029              		.loc 1 2605 4 is_stmt 1 discriminator 1 view .LVU808
 3030              		.loc 1 2605 4 discriminator 1 view .LVU809
 3031              		.loc 1 2605 4 discriminator 1 view .LVU810
 3032 002c FEE7     		b	.L228
 3033              	.L227:
 3034              		.loc 1 2605 4 discriminator 2 view .LVU811
 3035              		.loc 1 2605 4 discriminator 2 view .LVU812
 3036 002e 314A     		ldr	r2, .L246+8
 3037 0030 1168     		ldr	r1, [r2]
 3038              	.LVL209:
 3039              		.loc 1 2605 4 discriminator 2 view .LVU813
 3040 0032 314B     		ldr	r3, .L246+12
 3041 0034 1868     		ldr	r0, [r3]
 3042 0036 1060     		str	r0, [r2]
 3043              		.loc 1 2605 4 discriminator 2 view .LVU814
 3044 0038 1960     		str	r1, [r3]
 3045              		.loc 1 2605 4 discriminator 2 view .LVU815
 3046 003a 304A     		ldr	r2, .L246+16
 3047 003c 1368     		ldr	r3, [r2]
 3048 003e 0133     		adds	r3, r3, #1
 3049 0040 1360     		str	r3, [r2]
 3050              		.loc 1 2605 4 discriminator 2 view .LVU816
 3051 0042 2F4B     		ldr	r3, .L246+20
 3052 0044 9847     		blx	r3
 3053              	.LVL210:
 3054              		.loc 1 2605 4 is_stmt 0 discriminator 2 view .LVU817
 3055              	.LBE159:
 3056              		.loc 1 2605 30 is_stmt 1 discriminator 2 view .LVU818
 3057              	.L226:
 3058              		.loc 1 2609 28 view .LVU819
 3059              		.loc 1 2616 3 view .LVU820
 3060              		.loc 1 2616 23 is_stmt 0 view .LVU821
 3061 0046 2F4B     		ldr	r3, .L246+24
 3062 0048 1B68     		ldr	r3, [r3]
 3063              		.loc 1 2616 5 view .LVU822
 3064 004a AB42     		cmp	r3, r5
 3065 004c 38D9     		bls	.L239
 3066              	.LBE158:
 3067              		.loc 1 2587 12 view .LVU823
 3068 004e 0027     		movs	r7, #0
 3069              	.LVL211:
 3070              	.L230:
 3071              	.LBB162:
ARM GAS  C:\Users\Test\AppData\Local\Temp\ccYEQElh.s 			page 54


 3072              		.loc 1 2699 4 is_stmt 1 view .LVU824
 3073              		.loc 1 2699 8 is_stmt 0 view .LVU825
 3074 0050 2D4B     		ldr	r3, .L246+28
 3075 0052 1B68     		ldr	r3, [r3]
 3076 0054 DB6A     		ldr	r3, [r3, #44]
 3077 0056 03EB8303 		add	r3, r3, r3, lsl #2
 3078 005a 9A00     		lsls	r2, r3, #2
 3079 005c 2B4B     		ldr	r3, .L246+32
 3080 005e 9B58     		ldr	r3, [r3, r2]
 3081              		.loc 1 2699 6 view .LVU826
 3082 0060 012B     		cmp	r3, #1
 3083 0062 3CD9     		bls	.L237
 3084              		.loc 1 2701 21 view .LVU827
 3085 0064 0127     		movs	r7, #1
 3086              	.LVL212:
 3087              		.loc 1 2701 21 view .LVU828
 3088 0066 3AE0     		b	.L237
 3089              	.LVL213:
 3090              	.L240:
 3091              		.loc 1 2682 24 view .LVU829
 3092 0068 0127     		movs	r7, #1
 3093              	.LVL214:
 3094              	.L229:
 3095              		.loc 1 2618 4 is_stmt 1 view .LVU830
 3096              		.loc 1 2620 5 view .LVU831
 3097              		.loc 1 2620 9 is_stmt 0 view .LVU832
 3098 006a 224B     		ldr	r3, .L246+8
 3099 006c 1B68     		ldr	r3, [r3]
 3100 006e 1B68     		ldr	r3, [r3]
 3101              		.loc 1 2620 48 view .LVU833
 3102 0070 43B3     		cbz	r3, .L244
 3103              		.loc 1 2636 6 is_stmt 1 view .LVU834
 3104              		.loc 1 2636 26 is_stmt 0 view .LVU835
 3105 0072 204B     		ldr	r3, .L246+8
 3106 0074 1B68     		ldr	r3, [r3]
 3107 0076 DB68     		ldr	r3, [r3, #12]
 3108              		.loc 1 2636 12 view .LVU836
 3109 0078 DC68     		ldr	r4, [r3, #12]
 3110              	.LVL215:
 3111              		.loc 1 2637 6 is_stmt 1 view .LVU837
 3112              		.loc 1 2637 17 is_stmt 0 view .LVU838
 3113 007a 6368     		ldr	r3, [r4, #4]
 3114              	.LVL216:
 3115              		.loc 1 2639 6 is_stmt 1 view .LVU839
 3116              		.loc 1 2639 8 is_stmt 0 view .LVU840
 3117 007c 9D42     		cmp	r5, r3
 3118 007e 26D3     		bcc	.L245
 3119              		.loc 1 2651 31 is_stmt 1 view .LVU841
 3120              		.loc 1 2655 6 view .LVU842
 3121              		.loc 1 2655 15 is_stmt 0 view .LVU843
 3122 0080 261D     		adds	r6, r4, #4
 3123 0082 3046     		mov	r0, r6
 3124 0084 224B     		ldr	r3, .L246+36
 3125              	.LVL217:
 3126              		.loc 1 2655 15 view .LVU844
 3127 0086 9847     		blx	r3
 3128              	.LVL218:
ARM GAS  C:\Users\Test\AppData\Local\Temp\ccYEQElh.s 			page 55


 3129              		.loc 1 2659 6 is_stmt 1 view .LVU845
 3130              		.loc 1 2659 10 is_stmt 0 view .LVU846
 3131 0088 A36A     		ldr	r3, [r4, #40]
 3132              		.loc 1 2659 8 view .LVU847
 3133 008a 1BB1     		cbz	r3, .L233
 3134              		.loc 1 2661 7 is_stmt 1 view .LVU848
 3135              		.loc 1 2661 16 is_stmt 0 view .LVU849
 3136 008c 04F11800 		add	r0, r4, #24
 3137 0090 1F4B     		ldr	r3, .L246+36
 3138 0092 9847     		blx	r3
 3139              	.LVL219:
 3140              	.L233:
 3141              		.loc 1 2665 31 is_stmt 1 view .LVU850
 3142              		.loc 1 2670 6 view .LVU851
 3143              		.loc 1 2670 6 view .LVU852
 3144 0094 E36A     		ldr	r3, [r4, #44]
 3145 0096 1F4A     		ldr	r2, .L246+40
 3146 0098 1268     		ldr	r2, [r2]
 3147 009a 9342     		cmp	r3, r2
 3148 009c 01D9     		bls	.L234
 3149              		.loc 1 2670 6 discriminator 1 view .LVU853
 3150 009e 1D4A     		ldr	r2, .L246+40
 3151 00a0 1360     		str	r3, [r2]
 3152              	.L234:
 3153              		.loc 1 2670 6 discriminator 3 view .LVU854
 3154              		.loc 1 2670 6 discriminator 3 view .LVU855
 3155 00a2 03EB8303 		add	r3, r3, r3, lsl #2
 3156 00a6 9A00     		lsls	r2, r3, #2
 3157 00a8 3146     		mov	r1, r6
 3158 00aa 1848     		ldr	r0, .L246+32
 3159 00ac 1044     		add	r0, r0, r2
 3160 00ae 1A4B     		ldr	r3, .L246+44
 3161 00b0 9847     		blx	r3
 3162              	.LVL220:
 3163              		.loc 1 2670 36 discriminator 3 view .LVU856
 3164              		.loc 1 2680 7 discriminator 3 view .LVU857
 3165              		.loc 1 2680 16 is_stmt 0 discriminator 3 view .LVU858
 3166 00b2 E26A     		ldr	r2, [r4, #44]
 3167              		.loc 1 2680 44 discriminator 3 view .LVU859
 3168 00b4 144B     		ldr	r3, .L246+28
 3169 00b6 1B68     		ldr	r3, [r3]
 3170 00b8 DB6A     		ldr	r3, [r3, #44]
 3171              		.loc 1 2680 9 discriminator 3 view .LVU860
 3172 00ba 9A42     		cmp	r2, r3
 3173 00bc D4D2     		bcs	.L240
 3174 00be D4E7     		b	.L229
 3175              	.LVL221:
 3176              	.L239:
 3177              		.loc 1 2680 9 discriminator 3 view .LVU861
 3178              	.LBE162:
 3179              		.loc 1 2587 12 view .LVU862
 3180 00c0 0027     		movs	r7, #0
 3181 00c2 D2E7     		b	.L229
 3182              	.LVL222:
 3183              	.L244:
 3184              	.LBB163:
 3185              		.loc 1 2627 6 is_stmt 1 view .LVU863
ARM GAS  C:\Users\Test\AppData\Local\Temp\ccYEQElh.s 			page 56


 3186              		.loc 1 2627 27 is_stmt 0 view .LVU864
 3187 00c4 0F4B     		ldr	r3, .L246+24
 3188 00c6 4FF0FF32 		mov	r2, #-1
 3189 00ca 1A60     		str	r2, [r3]
 3190              		.loc 1 2628 6 is_stmt 1 view .LVU865
 3191 00cc C0E7     		b	.L230
 3192              	.LVL223:
 3193              	.L245:
 3194              		.loc 1 2646 7 view .LVU866
 3195              		.loc 1 2646 28 is_stmt 0 view .LVU867
 3196 00ce 0D4A     		ldr	r2, .L246+24
 3197 00d0 1360     		str	r3, [r2]
 3198              		.loc 1 2647 7 is_stmt 1 view .LVU868
 3199 00d2 BDE7     		b	.L230
 3200              	.LVL224:
 3201              	.L225:
 3202              		.loc 1 2647 7 is_stmt 0 view .LVU869
 3203              	.LBE163:
 3204              		.loc 1 2727 3 is_stmt 1 view .LVU870
 3205 00d4 114A     		ldr	r2, .L246+48
 3206 00d6 1368     		ldr	r3, [r2]
 3207 00d8 0133     		adds	r3, r3, #1
 3208 00da 1360     		str	r3, [r2]
 3209              		.loc 1 2587 12 is_stmt 0 view .LVU871
 3210 00dc 0027     		movs	r7, #0
 3211              	.LVL225:
 3212              	.L237:
 3213              		.loc 1 2740 3 is_stmt 1 view .LVU872
 3214              		.loc 1 2740 21 is_stmt 0 view .LVU873
 3215 00de 104B     		ldr	r3, .L246+52
 3216 00e0 1B68     		ldr	r3, [r3]
 3217              		.loc 1 2740 5 view .LVU874
 3218 00e2 03B1     		cbz	r3, .L224
 3219              		.loc 1 2742 20 view .LVU875
 3220 00e4 0127     		movs	r7, #1
 3221              	.LVL226:
 3222              		.loc 1 2746 28 is_stmt 1 view .LVU876
 3223              		.loc 1 2751 2 view .LVU877
 3224              	.L224:
 3225              		.loc 1 2752 1 is_stmt 0 view .LVU878
 3226 00e6 3846     		mov	r0, r7
 3227 00e8 F8BD     		pop	{r3, r4, r5, r6, r7, pc}
 3228              	.L247:
 3229 00ea 00BF     		.align	2
 3230              	.L246:
 3231 00ec 00000000 		.word	.LANCHOR16
 3232 00f0 00000000 		.word	.LANCHOR15
 3233 00f4 00000000 		.word	.LANCHOR2
 3234 00f8 00000000 		.word	.LANCHOR8
 3235 00fc 00000000 		.word	.LANCHOR18
 3236 0100 00000000 		.word	prvResetNextTaskUnblockTime
 3237 0104 00000000 		.word	.LANCHOR3
 3238 0108 00000000 		.word	.LANCHOR10
 3239 010c 00000000 		.word	.LANCHOR4
 3240 0110 00000000 		.word	uxListRemove
 3241 0114 00000000 		.word	.LANCHOR13
 3242 0118 00000000 		.word	vListInsertEnd
ARM GAS  C:\Users\Test\AppData\Local\Temp\ccYEQElh.s 			page 57


 3243 011c 00000000 		.word	.LANCHOR19
 3244 0120 00000000 		.word	.LANCHOR20
 3245              		.cfi_endproc
 3246              	.LFE28:
 3248              		.section	.text.xTaskResumeAll,"ax",%progbits
 3249              		.align	1
 3250              		.global	xTaskResumeAll
 3251              		.syntax unified
 3252              		.thumb
 3253              		.thumb_func
 3254              		.fpu softvfp
 3256              	xTaskResumeAll:
 3257              	.LFB22:
 3258              		.loc 1 2100 1 is_stmt 1 view -0
 3259              		.cfi_startproc
 3260              		@ args = 0, pretend = 0, frame = 0
 3261              		@ frame_needed = 0, uses_anonymous_args = 0
 3262              		.loc 1 2101 1 view .LVU880
 3263              	.LVL227:
 3264              		.loc 1 2102 1 view .LVU881
 3265              		.loc 1 2106 2 view .LVU882
 3266 0000 344B     		ldr	r3, .L266
 3267 0002 1B68     		ldr	r3, [r3]
 3268 0004 43B9     		cbnz	r3, .L249
 3269              		.loc 1 2106 2 view .LVU883
 3270              	.LBB164:
 3271              	.LBI164:
 3272              		.loc 2 191 30 view .LVU884
 3273              	.LBB165:
 3274              		.loc 2 193 1 view .LVU885
 3275              		.loc 2 195 2 view .LVU886
 3276              		.syntax unified
 3277              	@ 195 "Middlewares/Third_Party/FreeRTOS/Source/portable/GCC/ARM_CM3/portmacro.h" 1
 3278 0006 4FF05003 			mov r3, #80												
 3279 000a 83F31188 		msr basepri, r3											
 3280 000e BFF36F8F 		isb														
 3281 0012 BFF34F8F 		dsb														
 3282              	
 3283              	@ 0 "" 2
 3284              	.LVL228:
 3285              		.thumb
 3286              		.syntax unified
 3287              	.L250:
 3288              		.loc 2 195 2 is_stmt 0 view .LVU887
 3289              	.LBE165:
 3290              	.LBE164:
 3291              		.loc 1 2106 2 is_stmt 1 discriminator 1 view .LVU888
 3292              		.loc 1 2106 2 discriminator 1 view .LVU889
 3293              		.loc 1 2106 2 discriminator 1 view .LVU890
 3294 0016 FEE7     		b	.L250
 3295              	.L249:
 3296              		.loc 1 2100 1 is_stmt 0 discriminator 2 view .LVU891
 3297 0018 70B5     		push	{r4, r5, r6, lr}
 3298              	.LCFI29:
 3299              		.cfi_def_cfa_offset 16
 3300              		.cfi_offset 4, -16
 3301              		.cfi_offset 5, -12
ARM GAS  C:\Users\Test\AppData\Local\Temp\ccYEQElh.s 			page 58


 3302              		.cfi_offset 6, -8
 3303              		.cfi_offset 14, -4
 3304              		.loc 1 2106 38 is_stmt 1 discriminator 2 view .LVU892
 3305              		.loc 1 2113 2 discriminator 2 view .LVU893
 3306 001a 2F4B     		ldr	r3, .L266+4
 3307 001c 9847     		blx	r3
 3308              	.LVL229:
 3309              		.loc 1 2115 3 discriminator 2 view .LVU894
 3310 001e 2D4B     		ldr	r3, .L266
 3311 0020 1A68     		ldr	r2, [r3]
 3312 0022 013A     		subs	r2, r2, #1
 3313 0024 1A60     		str	r2, [r3]
 3314              		.loc 1 2117 3 discriminator 2 view .LVU895
 3315              		.loc 1 2117 28 is_stmt 0 discriminator 2 view .LVU896
 3316 0026 1B68     		ldr	r3, [r3]
 3317              		.loc 1 2117 5 discriminator 2 view .LVU897
 3318 0028 002B     		cmp	r3, #0
 3319 002a 4ED1     		bne	.L260
 3320              		.loc 1 2119 4 is_stmt 1 view .LVU898
 3321              		.loc 1 2119 31 is_stmt 0 view .LVU899
 3322 002c 2B4B     		ldr	r3, .L266+8
 3323 002e 1B68     		ldr	r3, [r3]
 3324              		.loc 1 2119 6 view .LVU900
 3325 0030 0BB9     		cbnz	r3, .L261
 3326              		.loc 1 2102 12 view .LVU901
 3327 0032 0024     		movs	r4, #0
 3328 0034 4AE0     		b	.L251
 3329              	.L261:
 3330              		.loc 1 2101 8 view .LVU902
 3331 0036 0024     		movs	r4, #0
 3332              	.LVL230:
 3333              	.L252:
 3334              		.loc 1 2138 31 is_stmt 1 view .LVU903
 3335              		.loc 1 2123 10 view .LVU904
 3336              		.loc 1 2123 12 is_stmt 0 view .LVU905
 3337 0038 294B     		ldr	r3, .L266+12
 3338 003a 1B68     		ldr	r3, [r3]
 3339              		.loc 1 2123 10 view .LVU906
 3340 003c 13B3     		cbz	r3, .L264
 3341              		.loc 1 2125 6 is_stmt 1 view .LVU907
 3342              		.loc 1 2125 26 is_stmt 0 view .LVU908
 3343 003e 284B     		ldr	r3, .L266+12
 3344 0040 DB68     		ldr	r3, [r3, #12]
 3345              		.loc 1 2125 12 view .LVU909
 3346 0042 DC68     		ldr	r4, [r3, #12]
 3347              	.LVL231:
 3348              		.loc 1 2126 6 is_stmt 1 view .LVU910
 3349              		.loc 1 2126 15 is_stmt 0 view .LVU911
 3350 0044 04F11800 		add	r0, r4, #24
 3351 0048 264E     		ldr	r6, .L266+16
 3352 004a B047     		blx	r6
 3353              	.LVL232:
 3354              		.loc 1 2127 6 is_stmt 1 view .LVU912
 3355              		.loc 1 2127 15 is_stmt 0 view .LVU913
 3356 004c 251D     		adds	r5, r4, #4
 3357 004e 2846     		mov	r0, r5
 3358 0050 B047     		blx	r6
ARM GAS  C:\Users\Test\AppData\Local\Temp\ccYEQElh.s 			page 59


 3359              	.LVL233:
 3360              		.loc 1 2128 6 is_stmt 1 view .LVU914
 3361              		.loc 1 2128 6 view .LVU915
 3362 0052 E06A     		ldr	r0, [r4, #44]
 3363 0054 244B     		ldr	r3, .L266+20
 3364 0056 1B68     		ldr	r3, [r3]
 3365 0058 9842     		cmp	r0, r3
 3366 005a 01D9     		bls	.L253
 3367              		.loc 1 2128 6 discriminator 1 view .LVU916
 3368 005c 224B     		ldr	r3, .L266+20
 3369 005e 1860     		str	r0, [r3]
 3370              	.L253:
 3371              		.loc 1 2128 6 discriminator 3 view .LVU917
 3372              		.loc 1 2128 6 discriminator 3 view .LVU918
 3373 0060 00EB8000 		add	r0, r0, r0, lsl #2
 3374 0064 2946     		mov	r1, r5
 3375 0066 214B     		ldr	r3, .L266+24
 3376 0068 03EB8000 		add	r0, r3, r0, lsl #2
 3377 006c 204B     		ldr	r3, .L266+28
 3378 006e 9847     		blx	r3
 3379              	.LVL234:
 3380              		.loc 1 2128 36 discriminator 3 view .LVU919
 3381              		.loc 1 2132 6 discriminator 3 view .LVU920
 3382              		.loc 1 2132 15 is_stmt 0 discriminator 3 view .LVU921
 3383 0070 E26A     		ldr	r2, [r4, #44]
 3384              		.loc 1 2132 43 discriminator 3 view .LVU922
 3385 0072 204B     		ldr	r3, .L266+32
 3386 0074 1B68     		ldr	r3, [r3]
 3387 0076 DB6A     		ldr	r3, [r3, #44]
 3388              		.loc 1 2132 8 discriminator 3 view .LVU923
 3389 0078 9A42     		cmp	r2, r3
 3390 007a DDD3     		bcc	.L252
 3391              		.loc 1 2134 7 is_stmt 1 view .LVU924
 3392              		.loc 1 2134 21 is_stmt 0 view .LVU925
 3393 007c 1E4B     		ldr	r3, .L266+36
 3394 007e 0122     		movs	r2, #1
 3395 0080 1A60     		str	r2, [r3]
 3396 0082 D9E7     		b	.L252
 3397              	.L264:
 3398              		.loc 1 2142 5 is_stmt 1 view .LVU926
 3399              		.loc 1 2142 7 is_stmt 0 view .LVU927
 3400 0084 0CB1     		cbz	r4, .L256
 3401              		.loc 1 2150 6 is_stmt 1 view .LVU928
 3402 0086 1D4B     		ldr	r3, .L266+40
 3403 0088 9847     		blx	r3
 3404              	.LVL235:
 3405              	.L256:
 3406              	.LBB166:
 3407              		.loc 1 2158 6 view .LVU929
 3408              		.loc 1 2158 18 is_stmt 0 view .LVU930
 3409 008a 1D4B     		ldr	r3, .L266+44
 3410 008c 1C68     		ldr	r4, [r3]
 3411              	.LVL236:
 3412              		.loc 1 2160 6 is_stmt 1 view .LVU931
 3413              		.loc 1 2160 8 is_stmt 0 view .LVU932
 3414 008e 84B9     		cbnz	r4, .L259
 3415              	.L257:
ARM GAS  C:\Users\Test\AppData\Local\Temp\ccYEQElh.s 			page 60


 3416              		.loc 1 2179 31 is_stmt 1 view .LVU933
 3417              	.LBE166:
 3418              		.loc 1 2183 5 view .LVU934
 3419              		.loc 1 2183 23 is_stmt 0 view .LVU935
 3420 0090 194B     		ldr	r3, .L266+36
 3421 0092 1C68     		ldr	r4, [r3]
 3422              	.LVL237:
 3423              		.loc 1 2183 7 view .LVU936
 3424 0094 D4B1     		cbz	r4, .L251
 3425              		.loc 1 2187 7 is_stmt 1 view .LVU937
 3426              	.LVL238:
 3427              		.loc 1 2190 6 view .LVU938
 3428 0096 4FF0E023 		mov	r3, #-536813568
 3429 009a 4FF08052 		mov	r2, #268435456
 3430 009e C3F8042D 		str	r2, [r3, #3332]
 3431              		.loc 1 2190 6 view .LVU939
 3432              		.syntax unified
 3433              	@ 2190 "Middlewares/Third_Party/FreeRTOS/Source/tasks.c" 1
 3434 00a2 BFF34F8F 		dsb
 3435              	@ 0 "" 2
 3436              		.loc 1 2190 6 view .LVU940
 3437              	@ 2190 "Middlewares/Third_Party/FreeRTOS/Source/tasks.c" 1
 3438 00a6 BFF36F8F 		isb
 3439              	@ 0 "" 2
 3440              		.loc 1 2190 37 view .LVU941
 3441              		.loc 1 2187 23 is_stmt 0 view .LVU942
 3442              		.thumb
 3443              		.syntax unified
 3444 00aa 0124     		movs	r4, #1
 3445 00ac 0EE0     		b	.L251
 3446              	.LVL239:
 3447              	.L258:
 3448              	.LBB167:
 3449              		.loc 1 2170 33 is_stmt 1 view .LVU943
 3450              		.loc 1 2172 8 view .LVU944
 3451              		.loc 1 2173 14 view .LVU945
 3452              		.loc 1 2173 7 is_stmt 0 view .LVU946
 3453 00ae 013C     		subs	r4, r4, #1
 3454              	.LVL240:
 3455              		.loc 1 2173 7 view .LVU947
 3456 00b0 07D0     		beq	.L265
 3457              	.L259:
 3458              		.loc 1 2162 7 is_stmt 1 view .LVU948
 3459              		.loc 1 2164 8 view .LVU949
 3460              		.loc 1 2164 12 is_stmt 0 view .LVU950
 3461 00b2 144B     		ldr	r3, .L266+48
 3462 00b4 9847     		blx	r3
 3463              	.LVL241:
 3464              		.loc 1 2164 10 view .LVU951
 3465 00b6 0028     		cmp	r0, #0
 3466 00b8 F9D0     		beq	.L258
 3467              		.loc 1 2166 9 is_stmt 1 view .LVU952
 3468              		.loc 1 2166 23 is_stmt 0 view .LVU953
 3469 00ba 0F4B     		ldr	r3, .L266+36
 3470 00bc 0122     		movs	r2, #1
 3471 00be 1A60     		str	r2, [r3]
 3472 00c0 F5E7     		b	.L258
ARM GAS  C:\Users\Test\AppData\Local\Temp\ccYEQElh.s 			page 61


 3473              	.L265:
 3474              		.loc 1 2175 7 is_stmt 1 view .LVU954
 3475              		.loc 1 2175 21 is_stmt 0 view .LVU955
 3476 00c2 0F4B     		ldr	r3, .L266+44
 3477 00c4 0022     		movs	r2, #0
 3478 00c6 1A60     		str	r2, [r3]
 3479 00c8 E2E7     		b	.L257
 3480              	.LVL242:
 3481              	.L260:
 3482              		.loc 1 2175 21 view .LVU956
 3483              	.LBE167:
 3484              		.loc 1 2102 12 view .LVU957
 3485 00ca 0024     		movs	r4, #0
 3486              	.LVL243:
 3487              	.L251:
 3488              		.loc 1 2200 28 is_stmt 1 view .LVU958
 3489              		.loc 1 2203 2 view .LVU959
 3490 00cc 0E4B     		ldr	r3, .L266+52
 3491 00ce 9847     		blx	r3
 3492              	.LVL244:
 3493              		.loc 1 2205 2 view .LVU960
 3494              		.loc 1 2206 1 is_stmt 0 view .LVU961
 3495 00d0 2046     		mov	r0, r4
 3496 00d2 70BD     		pop	{r4, r5, r6, pc}
 3497              	.LVL245:
 3498              	.L267:
 3499              		.loc 1 2206 1 view .LVU962
 3500              		.align	2
 3501              	.L266:
 3502 00d4 00000000 		.word	.LANCHOR16
 3503 00d8 00000000 		.word	vPortEnterCritical
 3504 00dc 00000000 		.word	.LANCHOR9
 3505 00e0 00000000 		.word	.LANCHOR1
 3506 00e4 00000000 		.word	uxListRemove
 3507 00e8 00000000 		.word	.LANCHOR13
 3508 00ec 00000000 		.word	.LANCHOR4
 3509 00f0 00000000 		.word	vListInsertEnd
 3510 00f4 00000000 		.word	.LANCHOR10
 3511 00f8 00000000 		.word	.LANCHOR20
 3512 00fc 00000000 		.word	prvResetNextTaskUnblockTime
 3513 0100 00000000 		.word	.LANCHOR19
 3514 0104 00000000 		.word	xTaskIncrementTick
 3515 0108 00000000 		.word	vPortExitCritical
 3516              		.cfi_endproc
 3517              	.LFE22:
 3519              		.section	.text.vTaskDelayUntil,"ax",%progbits
 3520              		.align	1
 3521              		.global	vTaskDelayUntil
 3522              		.syntax unified
 3523              		.thumb
 3524              		.thumb_func
 3525              		.fpu softvfp
 3527              	vTaskDelayUntil:
 3528              	.LVL246:
 3529              	.LFB9:
 3530              		.loc 1 1199 2 is_stmt 1 view -0
 3531              		.cfi_startproc
ARM GAS  C:\Users\Test\AppData\Local\Temp\ccYEQElh.s 			page 62


 3532              		@ args = 0, pretend = 0, frame = 0
 3533              		@ frame_needed = 0, uses_anonymous_args = 0
 3534              		.loc 1 1199 2 is_stmt 0 view .LVU964
 3535 0000 38B5     		push	{r3, r4, r5, lr}
 3536              	.LCFI30:
 3537              		.cfi_def_cfa_offset 16
 3538              		.cfi_offset 3, -16
 3539              		.cfi_offset 4, -12
 3540              		.cfi_offset 5, -8
 3541              		.cfi_offset 14, -4
 3542              		.loc 1 1200 2 is_stmt 1 view .LVU965
 3543              		.loc 1 1201 2 view .LVU966
 3544              	.LVL247:
 3545              		.loc 1 1203 3 view .LVU967
 3546 0002 58B1     		cbz	r0, .L284
 3547 0004 0C46     		mov	r4, r1
 3548 0006 0546     		mov	r5, r0
 3549              		.loc 1 1203 37 discriminator 2 view .LVU968
 3550              		.loc 1 1204 3 discriminator 2 view .LVU969
 3551 0008 89B9     		cbnz	r1, .L271
 3552              		.loc 1 1204 3 view .LVU970
 3553              	.LBB168:
 3554              	.LBI168:
 3555              		.loc 2 191 30 view .LVU971
 3556              	.LBB169:
 3557              		.loc 2 193 1 view .LVU972
 3558              		.loc 2 195 2 view .LVU973
 3559              		.syntax unified
 3560              	@ 195 "Middlewares/Third_Party/FreeRTOS/Source/portable/GCC/ARM_CM3/portmacro.h" 1
 3561 000a 4FF05003 			mov r3, #80												
 3562 000e 83F31188 		msr basepri, r3											
 3563 0012 BFF36F8F 		isb														
 3564 0016 BFF34F8F 		dsb														
 3565              	
 3566              	@ 0 "" 2
 3567              	.LVL248:
 3568              		.thumb
 3569              		.syntax unified
 3570              	.L272:
 3571              		.loc 2 195 2 is_stmt 0 view .LVU974
 3572              	.LBE169:
 3573              	.LBE168:
 3574              		.loc 1 1204 3 is_stmt 1 discriminator 2 view .LVU975
 3575              		.loc 1 1204 3 discriminator 2 view .LVU976
 3576              		.loc 1 1204 3 discriminator 2 view .LVU977
 3577 001a FEE7     		b	.L272
 3578              	.L284:
 3579              		.loc 1 1203 3 view .LVU978
 3580              	.LBB170:
 3581              	.LBI170:
 3582              		.loc 2 191 30 view .LVU979
 3583              	.LBB171:
 3584              		.loc 2 193 1 view .LVU980
 3585              		.loc 2 195 2 view .LVU981
 3586              		.syntax unified
 3587              	@ 195 "Middlewares/Third_Party/FreeRTOS/Source/portable/GCC/ARM_CM3/portmacro.h" 1
 3588 001c 4FF05003 			mov r3, #80												
ARM GAS  C:\Users\Test\AppData\Local\Temp\ccYEQElh.s 			page 63


 3589 0020 83F31188 		msr basepri, r3											
 3590 0024 BFF36F8F 		isb														
 3591 0028 BFF34F8F 		dsb														
 3592              	
 3593              	@ 0 "" 2
 3594              	.LVL249:
 3595              		.thumb
 3596              		.syntax unified
 3597              	.L270:
 3598              		.loc 2 195 2 is_stmt 0 view .LVU982
 3599              	.LBE171:
 3600              	.LBE170:
 3601              		.loc 1 1203 3 is_stmt 1 discriminator 1 view .LVU983
 3602              		.loc 1 1203 3 discriminator 1 view .LVU984
 3603              		.loc 1 1203 3 discriminator 1 view .LVU985
 3604 002c FEE7     		b	.L270
 3605              	.L271:
 3606              		.loc 1 1204 42 discriminator 2 view .LVU986
 3607              		.loc 1 1205 3 discriminator 2 view .LVU987
 3608 002e 1B4B     		ldr	r3, .L285
 3609 0030 1B68     		ldr	r3, [r3]
 3610 0032 43B1     		cbz	r3, .L273
 3611              		.loc 1 1205 3 view .LVU988
 3612              	.LBB172:
 3613              	.LBI172:
 3614              		.loc 2 191 30 view .LVU989
 3615              	.LBB173:
 3616              		.loc 2 193 1 view .LVU990
 3617              		.loc 2 195 2 view .LVU991
 3618              		.syntax unified
 3619              	@ 195 "Middlewares/Third_Party/FreeRTOS/Source/portable/GCC/ARM_CM3/portmacro.h" 1
 3620 0034 4FF05003 			mov r3, #80												
 3621 0038 83F31188 		msr basepri, r3											
 3622 003c BFF36F8F 		isb														
 3623 0040 BFF34F8F 		dsb														
 3624              	
 3625              	@ 0 "" 2
 3626              	.LVL250:
 3627              		.thumb
 3628              		.syntax unified
 3629              	.L274:
 3630              		.loc 2 195 2 is_stmt 0 view .LVU992
 3631              	.LBE173:
 3632              	.LBE172:
 3633              		.loc 1 1205 3 is_stmt 1 discriminator 3 view .LVU993
 3634              		.loc 1 1205 3 discriminator 3 view .LVU994
 3635              		.loc 1 1205 3 discriminator 3 view .LVU995
 3636 0044 FEE7     		b	.L274
 3637              	.L273:
 3638              		.loc 1 1205 44 discriminator 2 view .LVU996
 3639              		.loc 1 1207 3 discriminator 2 view .LVU997
 3640 0046 164B     		ldr	r3, .L285+4
 3641 0048 9847     		blx	r3
 3642              	.LVL251:
 3643              	.LBB174:
 3644              		.loc 1 1211 4 discriminator 2 view .LVU998
 3645              		.loc 1 1211 21 is_stmt 0 discriminator 2 view .LVU999
ARM GAS  C:\Users\Test\AppData\Local\Temp\ccYEQElh.s 			page 64


 3646 004a 164B     		ldr	r3, .L285+8
 3647 004c 1868     		ldr	r0, [r3]
 3648              	.LVL252:
 3649              		.loc 1 1214 4 is_stmt 1 discriminator 2 view .LVU1000
 3650              		.loc 1 1214 18 is_stmt 0 discriminator 2 view .LVU1001
 3651 004e 2A68     		ldr	r2, [r5]
 3652              		.loc 1 1214 16 discriminator 2 view .LVU1002
 3653 0050 1444     		add	r4, r4, r2
 3654              	.LVL253:
 3655              		.loc 1 1216 4 is_stmt 1 discriminator 2 view .LVU1003
 3656              		.loc 1 1216 6 is_stmt 0 discriminator 2 view .LVU1004
 3657 0052 8242     		cmp	r2, r0
 3658 0054 09D9     		bls	.L275
 3659              		.loc 1 1223 5 is_stmt 1 view .LVU1005
 3660              		.loc 1 1223 7 is_stmt 0 view .LVU1006
 3661 0056 A242     		cmp	r2, r4
 3662 0058 01D8     		bhi	.L276
 3663              		.loc 1 1248 4 is_stmt 1 view .LVU1007
 3664              		.loc 1 1248 24 is_stmt 0 view .LVU1008
 3665 005a 2C60     		str	r4, [r5]
 3666              		.loc 1 1250 4 is_stmt 1 view .LVU1009
 3667 005c 0EE0     		b	.L277
 3668              	.L276:
 3669              		.loc 1 1223 47 is_stmt 0 discriminator 1 view .LVU1010
 3670 005e A042     		cmp	r0, r4
 3671 0060 01D3     		bcc	.L278
 3672              		.loc 1 1248 4 is_stmt 1 view .LVU1011
 3673              		.loc 1 1248 24 is_stmt 0 view .LVU1012
 3674 0062 2C60     		str	r4, [r5]
 3675              		.loc 1 1250 4 is_stmt 1 view .LVU1013
 3676 0064 0AE0     		b	.L277
 3677              	.L278:
 3678              		.loc 1 1225 6 view .LVU1014
 3679              	.LVL254:
 3680              		.loc 1 1248 4 view .LVU1015
 3681              		.loc 1 1248 24 is_stmt 0 view .LVU1016
 3682 0066 2C60     		str	r4, [r5]
 3683              		.loc 1 1250 4 is_stmt 1 view .LVU1017
 3684 0068 04E0     		b	.L279
 3685              	.LVL255:
 3686              	.L275:
 3687              		.loc 1 1237 5 view .LVU1018
 3688              		.loc 1 1237 7 is_stmt 0 view .LVU1019
 3689 006a A242     		cmp	r2, r4
 3690 006c 01D8     		bhi	.L280
 3691              		.loc 1 1237 47 discriminator 1 view .LVU1020
 3692 006e A042     		cmp	r0, r4
 3693 0070 12D2     		bcs	.L281
 3694              	.L280:
 3695              		.loc 1 1239 6 is_stmt 1 view .LVU1021
 3696              	.LVL256:
 3697              		.loc 1 1248 4 view .LVU1022
 3698              		.loc 1 1248 24 is_stmt 0 view .LVU1023
 3699 0072 2C60     		str	r4, [r5]
 3700              		.loc 1 1250 4 is_stmt 1 view .LVU1024
 3701              	.L279:
 3702              		.loc 1 1252 41 view .LVU1025
ARM GAS  C:\Users\Test\AppData\Local\Temp\ccYEQElh.s 			page 65


 3703              		.loc 1 1256 5 view .LVU1026
 3704 0074 0021     		movs	r1, #0
 3705 0076 201A     		subs	r0, r4, r0
 3706              	.LVL257:
 3707              		.loc 1 1256 5 is_stmt 0 view .LVU1027
 3708 0078 0B4B     		ldr	r3, .L285+12
 3709 007a 9847     		blx	r3
 3710              	.LVL258:
 3711              	.L277:
 3712              		.loc 1 1260 29 is_stmt 1 view .LVU1028
 3713              	.LBE174:
 3714              		.loc 1 1263 3 view .LVU1029
 3715              		.loc 1 1263 21 is_stmt 0 view .LVU1030
 3716 007c 0B4B     		ldr	r3, .L285+16
 3717 007e 9847     		blx	r3
 3718              	.LVL259:
 3719              		.loc 1 1267 3 is_stmt 1 view .LVU1031
 3720              		.loc 1 1267 5 is_stmt 0 view .LVU1032
 3721 0080 48B9     		cbnz	r0, .L268
 3722              		.loc 1 1269 4 is_stmt 1 view .LVU1033
 3723 0082 4FF0E023 		mov	r3, #-536813568
 3724 0086 4FF08052 		mov	r2, #268435456
 3725 008a C3F8042D 		str	r2, [r3, #3332]
 3726              		.loc 1 1269 4 view .LVU1034
 3727              		.syntax unified
 3728              	@ 1269 "Middlewares/Third_Party/FreeRTOS/Source/tasks.c" 1
 3729 008e BFF34F8F 		dsb
 3730              	@ 0 "" 2
 3731              		.loc 1 1269 4 view .LVU1035
 3732              	@ 1269 "Middlewares/Third_Party/FreeRTOS/Source/tasks.c" 1
 3733 0092 BFF36F8F 		isb
 3734              	@ 0 "" 2
 3735              		.loc 1 1269 26 view .LVU1036
 3736              		.loc 1 1273 28 view .LVU1037
 3737              		.thumb
 3738              		.syntax unified
 3739              	.L268:
 3740              		.loc 1 1275 2 is_stmt 0 view .LVU1038
 3741 0096 38BD     		pop	{r3, r4, r5, pc}
 3742              	.LVL260:
 3743              	.L281:
 3744              	.LBB175:
 3745              		.loc 1 1248 4 is_stmt 1 view .LVU1039
 3746              		.loc 1 1248 24 is_stmt 0 view .LVU1040
 3747 0098 2C60     		str	r4, [r5]
 3748              		.loc 1 1250 4 is_stmt 1 view .LVU1041
 3749 009a EFE7     		b	.L277
 3750              	.L286:
 3751              		.align	2
 3752              	.L285:
 3753 009c 00000000 		.word	.LANCHOR16
 3754 00a0 00000000 		.word	vTaskSuspendAll
 3755 00a4 00000000 		.word	.LANCHOR15
 3756 00a8 00000000 		.word	prvAddCurrentTaskToDelayedList
 3757 00ac 00000000 		.word	xTaskResumeAll
 3758              	.LBE175:
 3759              		.cfi_endproc
ARM GAS  C:\Users\Test\AppData\Local\Temp\ccYEQElh.s 			page 66


 3760              	.LFE9:
 3762              		.section	.text.vTaskDelay,"ax",%progbits
 3763              		.align	1
 3764              		.global	vTaskDelay
 3765              		.syntax unified
 3766              		.thumb
 3767              		.thumb_func
 3768              		.fpu softvfp
 3770              	vTaskDelay:
 3771              	.LVL261:
 3772              	.LFB10:
 3773              		.loc 1 1283 2 view -0
 3774              		.cfi_startproc
 3775              		@ args = 0, pretend = 0, frame = 0
 3776              		@ frame_needed = 0, uses_anonymous_args = 0
 3777              		.loc 1 1283 2 is_stmt 0 view .LVU1043
 3778 0000 10B5     		push	{r4, lr}
 3779              	.LCFI31:
 3780              		.cfi_def_cfa_offset 8
 3781              		.cfi_offset 4, -8
 3782              		.cfi_offset 14, -4
 3783              		.loc 1 1284 2 is_stmt 1 view .LVU1044
 3784              	.LVL262:
 3785              		.loc 1 1287 3 view .LVU1045
 3786              		.loc 1 1287 5 is_stmt 0 view .LVU1046
 3787 0002 A8B1     		cbz	r0, .L288
 3788 0004 0446     		mov	r4, r0
 3789              		.loc 1 1289 4 is_stmt 1 view .LVU1047
 3790 0006 104B     		ldr	r3, .L293
 3791 0008 1B68     		ldr	r3, [r3]
 3792 000a 43B1     		cbz	r3, .L289
 3793              		.loc 1 1289 4 view .LVU1048
 3794              	.LBB176:
 3795              	.LBI176:
 3796              		.loc 2 191 30 view .LVU1049
 3797              	.LBB177:
 3798              		.loc 2 193 1 view .LVU1050
 3799              		.loc 2 195 2 view .LVU1051
 3800              		.syntax unified
 3801              	@ 195 "Middlewares/Third_Party/FreeRTOS/Source/portable/GCC/ARM_CM3/portmacro.h" 1
 3802 000c 4FF05003 			mov r3, #80												
 3803 0010 83F31188 		msr basepri, r3											
 3804 0014 BFF36F8F 		isb														
 3805 0018 BFF34F8F 		dsb														
 3806              	
 3807              	@ 0 "" 2
 3808              	.LVL263:
 3809              		.thumb
 3810              		.syntax unified
 3811              	.L290:
 3812              		.loc 2 195 2 is_stmt 0 view .LVU1052
 3813              	.LBE177:
 3814              	.LBE176:
 3815              		.loc 1 1289 4 is_stmt 1 discriminator 1 view .LVU1053
 3816              		.loc 1 1289 4 discriminator 1 view .LVU1054
 3817              		.loc 1 1289 4 discriminator 1 view .LVU1055
 3818 001c FEE7     		b	.L290
ARM GAS  C:\Users\Test\AppData\Local\Temp\ccYEQElh.s 			page 67


 3819              	.L289:
 3820              		.loc 1 1289 45 discriminator 2 view .LVU1056
 3821              		.loc 1 1290 4 discriminator 2 view .LVU1057
 3822 001e 0B4B     		ldr	r3, .L293+4
 3823 0020 9847     		blx	r3
 3824              	.LVL264:
 3825              		.loc 1 1292 22 discriminator 2 view .LVU1058
 3826              		.loc 1 1301 5 discriminator 2 view .LVU1059
 3827 0022 0021     		movs	r1, #0
 3828 0024 2046     		mov	r0, r4
 3829 0026 0A4B     		ldr	r3, .L293+8
 3830 0028 9847     		blx	r3
 3831              	.LVL265:
 3832              		.loc 1 1303 4 discriminator 2 view .LVU1060
 3833              		.loc 1 1303 22 is_stmt 0 discriminator 2 view .LVU1061
 3834 002a 0A4B     		ldr	r3, .L293+12
 3835 002c 9847     		blx	r3
 3836              	.LVL266:
 3837              		.loc 1 1307 28 is_stmt 1 discriminator 2 view .LVU1062
 3838              		.loc 1 1312 3 discriminator 2 view .LVU1063
 3839              		.loc 1 1312 5 is_stmt 0 discriminator 2 view .LVU1064
 3840 002e 48B9     		cbnz	r0, .L287
 3841              	.LVL267:
 3842              	.L288:
 3843              		.loc 1 1314 4 is_stmt 1 view .LVU1065
 3844 0030 4FF0E023 		mov	r3, #-536813568
 3845 0034 4FF08052 		mov	r2, #268435456
 3846 0038 C3F8042D 		str	r2, [r3, #3332]
 3847              		.loc 1 1314 4 view .LVU1066
 3848              		.syntax unified
 3849              	@ 1314 "Middlewares/Third_Party/FreeRTOS/Source/tasks.c" 1
 3850 003c BFF34F8F 		dsb
 3851              	@ 0 "" 2
 3852              		.loc 1 1314 4 view .LVU1067
 3853              	@ 1314 "Middlewares/Third_Party/FreeRTOS/Source/tasks.c" 1
 3854 0040 BFF36F8F 		isb
 3855              	@ 0 "" 2
 3856              		.loc 1 1314 26 view .LVU1068
 3857              		.loc 1 1318 28 view .LVU1069
 3858              		.thumb
 3859              		.syntax unified
 3860              	.L287:
 3861              		.loc 1 1320 2 is_stmt 0 view .LVU1070
 3862 0044 10BD     		pop	{r4, pc}
 3863              	.L294:
 3864 0046 00BF     		.align	2
 3865              	.L293:
 3866 0048 00000000 		.word	.LANCHOR16
 3867 004c 00000000 		.word	vTaskSuspendAll
 3868 0050 00000000 		.word	prvAddCurrentTaskToDelayedList
 3869 0054 00000000 		.word	xTaskResumeAll
 3870              		.cfi_endproc
 3871              	.LFE10:
 3873              		.section	.text.vTaskSwitchContext,"ax",%progbits
 3874              		.align	1
 3875              		.global	vTaskSwitchContext
 3876              		.syntax unified
ARM GAS  C:\Users\Test\AppData\Local\Temp\ccYEQElh.s 			page 68


 3877              		.thumb
 3878              		.thumb_func
 3879              		.fpu softvfp
 3881              	vTaskSwitchContext:
 3882              	.LFB29:
 3883              		.loc 1 2846 1 is_stmt 1 view -0
 3884              		.cfi_startproc
 3885              		@ args = 0, pretend = 0, frame = 0
 3886              		@ frame_needed = 0, uses_anonymous_args = 0
 3887              		@ link register save eliminated.
 3888              		.loc 1 2847 2 view .LVU1072
 3889              		.loc 1 2847 27 is_stmt 0 view .LVU1073
 3890 0000 1F4B     		ldr	r3, .L306
 3891 0002 1B68     		ldr	r3, [r3]
 3892              		.loc 1 2847 4 view .LVU1074
 3893 0004 1BB1     		cbz	r3, .L296
 3894              		.loc 1 2851 3 is_stmt 1 view .LVU1075
 3895              		.loc 1 2851 17 is_stmt 0 view .LVU1076
 3896 0006 1F4B     		ldr	r3, .L306+4
 3897 0008 0122     		movs	r2, #1
 3898 000a 1A60     		str	r2, [r3]
 3899 000c 7047     		bx	lr
 3900              	.L296:
 3901              		.loc 1 2855 3 is_stmt 1 view .LVU1077
 3902              		.loc 1 2855 17 is_stmt 0 view .LVU1078
 3903 000e 1D4B     		ldr	r3, .L306+4
 3904 0010 0022     		movs	r2, #0
 3905 0012 1A60     		str	r2, [r3]
 3906              		.loc 1 2856 27 is_stmt 1 view .LVU1079
 3907              		.loc 1 2886 33 view .LVU1080
 3908              	.LBB178:
 3909              		.loc 1 2890 3 view .LVU1081
 3910 0014 1C4B     		ldr	r3, .L306+8
 3911 0016 1B68     		ldr	r3, [r3]
 3912              	.LVL268:
 3913              		.loc 1 2890 3 view .LVU1082
 3914              	.L298:
 3915              		.loc 1 2890 3 discriminator 5 view .LVU1083
 3916 0018 03EB8301 		add	r1, r3, r3, lsl #2
 3917 001c 8A00     		lsls	r2, r1, #2
 3918 001e 1B49     		ldr	r1, .L306+12
 3919 0020 8A58     		ldr	r2, [r1, r2]
 3920 0022 5AB9     		cbnz	r2, .L303
 3921              		.loc 1 2890 3 discriminator 6 view .LVU1084
 3922 0024 0BB1     		cbz	r3, .L304
 3923              		.loc 1 2890 3 discriminator 3 view .LVU1085
 3924              		.loc 1 2890 3 discriminator 3 view .LVU1086
 3925 0026 013B     		subs	r3, r3, #1
 3926              	.LVL269:
 3927              		.loc 1 2890 3 is_stmt 0 discriminator 3 view .LVU1087
 3928 0028 F6E7     		b	.L298
 3929              	.L304:
 3930              		.loc 1 2890 3 is_stmt 1 view .LVU1088
 3931              	.LBB179:
 3932              	.LBI179:
 3933              		.loc 2 191 30 view .LVU1089
 3934              	.LBB180:
ARM GAS  C:\Users\Test\AppData\Local\Temp\ccYEQElh.s 			page 69


 3935              		.loc 2 193 1 view .LVU1090
 3936              		.loc 2 195 2 view .LVU1091
 3937              		.syntax unified
 3938              	@ 195 "Middlewares/Third_Party/FreeRTOS/Source/portable/GCC/ARM_CM3/portmacro.h" 1
 3939 002a 4FF05003 			mov r3, #80												
 3940 002e 83F31188 		msr basepri, r3											
 3941 0032 BFF36F8F 		isb														
 3942 0036 BFF34F8F 		dsb														
 3943              	
 3944              	@ 0 "" 2
 3945              	.LVL270:
 3946              		.thumb
 3947              		.syntax unified
 3948              	.L300:
 3949              		.loc 2 195 2 is_stmt 0 view .LVU1092
 3950              	.LBE180:
 3951              	.LBE179:
 3952              		.loc 1 2890 3 is_stmt 1 discriminator 1 view .LVU1093
 3953              		.loc 1 2890 3 discriminator 1 view .LVU1094
 3954              		.loc 1 2890 3 discriminator 1 view .LVU1095
 3955 003a FEE7     		b	.L300
 3956              	.LVL271:
 3957              	.L303:
 3958              	.LBB181:
 3959              		.loc 1 2890 3 discriminator 7 view .LVU1096
 3960              		.loc 1 2890 3 discriminator 7 view .LVU1097
 3961 003c 03EB8300 		add	r0, r3, r3, lsl #2
 3962 0040 8200     		lsls	r2, r0, #2
 3963 0042 0A44     		add	r2, r2, r1
 3964 0044 5068     		ldr	r0, [r2, #4]
 3965 0046 4068     		ldr	r0, [r0, #4]
 3966 0048 5060     		str	r0, [r2, #4]
 3967              		.loc 1 2890 3 discriminator 7 view .LVU1098
 3968 004a 03EB830C 		add	ip, r3, r3, lsl #2
 3969 004e 4FEA8C02 		lsl	r2, ip, #2
 3970 0052 0832     		adds	r2, r2, #8
 3971 0054 1144     		add	r1, r1, r2
 3972 0056 8842     		cmp	r0, r1
 3973 0058 0BD0     		beq	.L305
 3974              	.L302:
 3975              		.loc 1 2890 3 discriminator 10 view .LVU1099
 3976 005a 03EB8302 		add	r2, r3, r3, lsl #2
 3977 005e 9100     		lsls	r1, r2, #2
 3978 0060 0A4A     		ldr	r2, .L306+12
 3979 0062 0A44     		add	r2, r2, r1
 3980 0064 5268     		ldr	r2, [r2, #4]
 3981 0066 D168     		ldr	r1, [r2, #12]
 3982 0068 094A     		ldr	r2, .L306+16
 3983 006a 1160     		str	r1, [r2]
 3984              	.LBE181:
 3985              		.loc 1 2890 3 discriminator 10 view .LVU1100
 3986              		.loc 1 2890 3 discriminator 10 view .LVU1101
 3987 006c 064A     		ldr	r2, .L306+8
 3988 006e 1360     		str	r3, [r2]
 3989              	.LBE178:
 3990              		.loc 1 2890 37 discriminator 10 view .LVU1102
 3991              		.loc 1 2891 26 discriminator 10 view .LVU1103
ARM GAS  C:\Users\Test\AppData\Local\Temp\ccYEQElh.s 			page 70


 3992              		.loc 1 2901 1 is_stmt 0 discriminator 10 view .LVU1104
 3993 0070 7047     		bx	lr
 3994              	.L305:
 3995              	.LBB183:
 3996              	.LBB182:
 3997              		.loc 1 2890 3 is_stmt 1 discriminator 8 view .LVU1105
 3998 0072 4068     		ldr	r0, [r0, #4]
 3999 0074 6246     		mov	r2, ip
 4000 0076 9100     		lsls	r1, r2, #2
 4001 0078 044A     		ldr	r2, .L306+12
 4002 007a 0A44     		add	r2, r2, r1
 4003 007c 5060     		str	r0, [r2, #4]
 4004 007e ECE7     		b	.L302
 4005              	.L307:
 4006              		.align	2
 4007              	.L306:
 4008 0080 00000000 		.word	.LANCHOR16
 4009 0084 00000000 		.word	.LANCHOR20
 4010 0088 00000000 		.word	.LANCHOR13
 4011 008c 00000000 		.word	.LANCHOR4
 4012 0090 00000000 		.word	.LANCHOR10
 4013              	.LBE182:
 4014              	.LBE183:
 4015              		.cfi_endproc
 4016              	.LFE29:
 4018              		.section	.text.vTaskSuspend,"ax",%progbits
 4019              		.align	1
 4020              		.global	vTaskSuspend
 4021              		.syntax unified
 4022              		.thumb
 4023              		.thumb_func
 4024              		.fpu softvfp
 4026              	vTaskSuspend:
 4027              	.LVL272:
 4028              	.LFB15:
 4029              		.loc 1 1625 2 view -0
 4030              		.cfi_startproc
 4031              		@ args = 0, pretend = 0, frame = 0
 4032              		@ frame_needed = 0, uses_anonymous_args = 0
 4033              		.loc 1 1625 2 is_stmt 0 view .LVU1107
 4034 0000 38B5     		push	{r3, r4, r5, lr}
 4035              	.LCFI32:
 4036              		.cfi_def_cfa_offset 16
 4037              		.cfi_offset 3, -16
 4038              		.cfi_offset 4, -12
 4039              		.cfi_offset 5, -8
 4040              		.cfi_offset 14, -4
 4041 0002 0446     		mov	r4, r0
 4042              		.loc 1 1626 2 is_stmt 1 view .LVU1108
 4043              		.loc 1 1628 3 view .LVU1109
 4044 0004 2A4B     		ldr	r3, .L323
 4045 0006 9847     		blx	r3
 4046              	.LVL273:
 4047              		.loc 1 1632 4 view .LVU1110
 4048              		.loc 1 1632 12 is_stmt 0 view .LVU1111
 4049 0008 E4B1     		cbz	r4, .L319
 4050              	.LVL274:
ARM GAS  C:\Users\Test\AppData\Local\Temp\ccYEQElh.s 			page 71


 4051              	.L309:
 4052              		.loc 1 1634 30 is_stmt 1 discriminator 4 view .LVU1112
 4053              		.loc 1 1638 4 discriminator 4 view .LVU1113
 4054              		.loc 1 1638 8 is_stmt 0 discriminator 4 view .LVU1114
 4055 000a 251D     		adds	r5, r4, #4
 4056 000c 2846     		mov	r0, r5
 4057 000e 294B     		ldr	r3, .L323+4
 4058 0010 9847     		blx	r3
 4059              	.LVL275:
 4060              		.loc 1 1644 29 is_stmt 1 discriminator 4 view .LVU1115
 4061              		.loc 1 1648 4 discriminator 4 view .LVU1116
 4062              		.loc 1 1648 8 is_stmt 0 discriminator 4 view .LVU1117
 4063 0012 A36A     		ldr	r3, [r4, #40]
 4064              		.loc 1 1648 6 discriminator 4 view .LVU1118
 4065 0014 1BB1     		cbz	r3, .L310
 4066              		.loc 1 1650 5 is_stmt 1 view .LVU1119
 4067              		.loc 1 1650 14 is_stmt 0 view .LVU1120
 4068 0016 04F11800 		add	r0, r4, #24
 4069 001a 264B     		ldr	r3, .L323+4
 4070 001c 9847     		blx	r3
 4071              	.LVL276:
 4072              	.L310:
 4073              		.loc 1 1654 29 is_stmt 1 view .LVU1121
 4074              		.loc 1 1657 4 view .LVU1122
 4075 001e 2946     		mov	r1, r5
 4076 0020 2548     		ldr	r0, .L323+8
 4077 0022 264B     		ldr	r3, .L323+12
 4078 0024 9847     		blx	r3
 4079              	.LVL277:
 4080              		.loc 1 1661 5 view .LVU1123
 4081              		.loc 1 1661 14 is_stmt 0 view .LVU1124
 4082 0026 94F85830 		ldrb	r3, [r4, #88]	@ zero_extendqisi2
 4083 002a DBB2     		uxtb	r3, r3
 4084              		.loc 1 1661 7 view .LVU1125
 4085 002c 012B     		cmp	r3, #1
 4086 002e 0CD0     		beq	.L320
 4087              	.L311:
 4088              		.loc 1 1670 3 is_stmt 1 view .LVU1126
 4089 0030 234B     		ldr	r3, .L323+16
 4090 0032 9847     		blx	r3
 4091              	.LVL278:
 4092              		.loc 1 1672 3 view .LVU1127
 4093              		.loc 1 1672 25 is_stmt 0 view .LVU1128
 4094 0034 234B     		ldr	r3, .L323+20
 4095 0036 1B68     		ldr	r3, [r3]
 4096              		.loc 1 1672 5 view .LVU1129
 4097 0038 5BB9     		cbnz	r3, .L321
 4098              	.L312:
 4099              		.loc 1 1684 28 is_stmt 1 view .LVU1130
 4100              		.loc 1 1687 3 view .LVU1131
 4101              		.loc 1 1687 13 is_stmt 0 view .LVU1132
 4102 003a 234B     		ldr	r3, .L323+24
 4103 003c 1B68     		ldr	r3, [r3]
 4104              		.loc 1 1687 5 view .LVU1133
 4105 003e A342     		cmp	r3, r4
 4106 0040 0ED0     		beq	.L322
 4107              	.L308:
ARM GAS  C:\Users\Test\AppData\Local\Temp\ccYEQElh.s 			page 72


 4108              		.loc 1 1718 2 view .LVU1134
 4109 0042 38BD     		pop	{r3, r4, r5, pc}
 4110              	.LVL279:
 4111              	.L319:
 4112              		.loc 1 1632 12 discriminator 1 view .LVU1135
 4113 0044 204B     		ldr	r3, .L323+24
 4114 0046 1C68     		ldr	r4, [r3]
 4115              	.LVL280:
 4116              		.loc 1 1632 12 discriminator 1 view .LVU1136
 4117 0048 DFE7     		b	.L309
 4118              	.LVL281:
 4119              	.L320:
 4120              		.loc 1 1665 6 is_stmt 1 view .LVU1137
 4121              		.loc 1 1665 27 is_stmt 0 view .LVU1138
 4122 004a 0023     		movs	r3, #0
 4123 004c 84F85830 		strb	r3, [r4, #88]
 4124 0050 EEE7     		b	.L311
 4125              	.L321:
 4126              		.loc 1 1676 4 is_stmt 1 view .LVU1139
 4127 0052 174B     		ldr	r3, .L323
 4128 0054 9847     		blx	r3
 4129              	.LVL282:
 4130              		.loc 1 1678 5 view .LVU1140
 4131 0056 1D4B     		ldr	r3, .L323+28
 4132 0058 9847     		blx	r3
 4133              	.LVL283:
 4134              		.loc 1 1680 4 view .LVU1141
 4135 005a 194B     		ldr	r3, .L323+16
 4136 005c 9847     		blx	r3
 4137              	.LVL284:
 4138 005e ECE7     		b	.L312
 4139              	.L322:
 4140              		.loc 1 1689 4 view .LVU1142
 4141              		.loc 1 1689 26 is_stmt 0 view .LVU1143
 4142 0060 184B     		ldr	r3, .L323+20
 4143 0062 1B68     		ldr	r3, [r3]
 4144              		.loc 1 1689 6 view .LVU1144
 4145 0064 B3B1     		cbz	r3, .L314
 4146              		.loc 1 1692 5 is_stmt 1 view .LVU1145
 4147 0066 1A4B     		ldr	r3, .L323+32
 4148 0068 1B68     		ldr	r3, [r3]
 4149 006a 43B1     		cbz	r3, .L315
 4150              		.loc 1 1692 5 view .LVU1146
 4151              	.LBB184:
 4152              	.LBI184:
 4153              		.loc 2 191 30 view .LVU1147
 4154              	.LBB185:
 4155              		.loc 2 193 1 view .LVU1148
 4156              		.loc 2 195 2 view .LVU1149
 4157              		.syntax unified
 4158              	@ 195 "Middlewares/Third_Party/FreeRTOS/Source/portable/GCC/ARM_CM3/portmacro.h" 1
 4159 006c 4FF05003 			mov r3, #80												
 4160 0070 83F31188 		msr basepri, r3											
 4161 0074 BFF36F8F 		isb														
 4162 0078 BFF34F8F 		dsb														
 4163              	
 4164              	@ 0 "" 2
ARM GAS  C:\Users\Test\AppData\Local\Temp\ccYEQElh.s 			page 73


 4165              	.LVL285:
 4166              		.thumb
 4167              		.syntax unified
 4168              	.L316:
 4169              		.loc 2 195 2 is_stmt 0 view .LVU1150
 4170              	.LBE185:
 4171              	.LBE184:
 4172              		.loc 1 1692 5 is_stmt 1 discriminator 1 view .LVU1151
 4173              		.loc 1 1692 5 discriminator 1 view .LVU1152
 4174              		.loc 1 1692 5 discriminator 1 view .LVU1153
 4175 007c FEE7     		b	.L316
 4176              	.L315:
 4177              		.loc 1 1692 46 discriminator 2 view .LVU1154
 4178              		.loc 1 1693 5 discriminator 2 view .LVU1155
 4179 007e 4FF0E023 		mov	r3, #-536813568
 4180 0082 4FF08052 		mov	r2, #268435456
 4181 0086 C3F8042D 		str	r2, [r3, #3332]
 4182              		.loc 1 1693 5 discriminator 2 view .LVU1156
 4183              		.syntax unified
 4184              	@ 1693 "Middlewares/Third_Party/FreeRTOS/Source/tasks.c" 1
 4185 008a BFF34F8F 		dsb
 4186              	@ 0 "" 2
 4187              		.loc 1 1693 5 discriminator 2 view .LVU1157
 4188              	@ 1693 "Middlewares/Third_Party/FreeRTOS/Source/tasks.c" 1
 4189 008e BFF36F8F 		isb
 4190              	@ 0 "" 2
 4191              		.loc 1 1693 27 discriminator 2 view .LVU1158
 4192              		.thumb
 4193              		.syntax unified
 4194 0092 D6E7     		b	.L308
 4195              	.L314:
 4196              		.loc 1 1700 5 view .LVU1159
 4197              		.loc 1 1700 9 is_stmt 0 view .LVU1160
 4198 0094 084B     		ldr	r3, .L323+8
 4199 0096 1A68     		ldr	r2, [r3]
 4200              		.loc 1 1700 56 view .LVU1161
 4201 0098 0E4B     		ldr	r3, .L323+36
 4202 009a 1B68     		ldr	r3, [r3]
 4203              		.loc 1 1700 7 view .LVU1162
 4204 009c 9A42     		cmp	r2, r3
 4205 009e 03D1     		bne	.L317
 4206              		.loc 1 1706 6 is_stmt 1 view .LVU1163
 4207              		.loc 1 1706 19 is_stmt 0 view .LVU1164
 4208 00a0 094B     		ldr	r3, .L323+24
 4209 00a2 0022     		movs	r2, #0
 4210 00a4 1A60     		str	r2, [r3]
 4211 00a6 CCE7     		b	.L308
 4212              	.L317:
 4213              		.loc 1 1710 6 is_stmt 1 view .LVU1165
 4214 00a8 0B4B     		ldr	r3, .L323+40
 4215 00aa 9847     		blx	r3
 4216              	.LVL286:
 4217              		.loc 1 1716 28 view .LVU1166
 4218              		.loc 1 1718 2 is_stmt 0 view .LVU1167
 4219 00ac C9E7     		b	.L308
 4220              	.L324:
 4221 00ae 00BF     		.align	2
ARM GAS  C:\Users\Test\AppData\Local\Temp\ccYEQElh.s 			page 74


 4222              	.L323:
 4223 00b0 00000000 		.word	vPortEnterCritical
 4224 00b4 00000000 		.word	uxListRemove
 4225 00b8 00000000 		.word	.LANCHOR0
 4226 00bc 00000000 		.word	vListInsertEnd
 4227 00c0 00000000 		.word	vPortExitCritical
 4228 00c4 00000000 		.word	.LANCHOR11
 4229 00c8 00000000 		.word	.LANCHOR10
 4230 00cc 00000000 		.word	prvResetNextTaskUnblockTime
 4231 00d0 00000000 		.word	.LANCHOR16
 4232 00d4 00000000 		.word	.LANCHOR9
 4233 00d8 00000000 		.word	vTaskSwitchContext
 4234              		.cfi_endproc
 4235              	.LFE15:
 4237              		.section	.text.vTaskPlaceOnEventList,"ax",%progbits
 4238              		.align	1
 4239              		.global	vTaskPlaceOnEventList
 4240              		.syntax unified
 4241              		.thumb
 4242              		.thumb_func
 4243              		.fpu softvfp
 4245              	vTaskPlaceOnEventList:
 4246              	.LVL287:
 4247              	.LFB30:
 4248              		.loc 1 2905 1 is_stmt 1 view -0
 4249              		.cfi_startproc
 4250              		@ args = 0, pretend = 0, frame = 0
 4251              		@ frame_needed = 0, uses_anonymous_args = 0
 4252              		.loc 1 2906 2 view .LVU1169
 4253 0000 58B1     		cbz	r0, .L330
 4254              		.loc 1 2905 1 is_stmt 0 discriminator 2 view .LVU1170
 4255 0002 10B5     		push	{r4, lr}
 4256              	.LCFI33:
 4257              		.cfi_def_cfa_offset 8
 4258              		.cfi_offset 4, -8
 4259              		.cfi_offset 14, -4
 4260 0004 0C46     		mov	r4, r1
 4261              		.loc 1 2906 29 is_stmt 1 discriminator 2 view .LVU1171
 4262              		.loc 1 2915 2 discriminator 2 view .LVU1172
 4263              		.loc 1 2915 43 is_stmt 0 discriminator 2 view .LVU1173
 4264 0006 094A     		ldr	r2, .L331
 4265 0008 1168     		ldr	r1, [r2]
 4266              	.LVL288:
 4267              		.loc 1 2915 2 discriminator 2 view .LVU1174
 4268 000a 1831     		adds	r1, r1, #24
 4269 000c 084B     		ldr	r3, .L331+4
 4270 000e 9847     		blx	r3
 4271              	.LVL289:
 4272              		.loc 1 2917 2 is_stmt 1 discriminator 2 view .LVU1175
 4273 0010 0121     		movs	r1, #1
 4274 0012 2046     		mov	r0, r4
 4275 0014 074B     		ldr	r3, .L331+8
 4276 0016 9847     		blx	r3
 4277              	.LVL290:
 4278              		.loc 1 2918 1 is_stmt 0 discriminator 2 view .LVU1176
 4279 0018 10BD     		pop	{r4, pc}
 4280              	.LVL291:
ARM GAS  C:\Users\Test\AppData\Local\Temp\ccYEQElh.s 			page 75


 4281              	.L330:
 4282              	.LCFI34:
 4283              		.cfi_def_cfa_offset 0
 4284              		.cfi_restore 4
 4285              		.cfi_restore 14
 4286              		.loc 1 2906 2 is_stmt 1 view .LVU1177
 4287              	.LBB186:
 4288              	.LBI186:
 4289              		.loc 2 191 30 view .LVU1178
 4290              	.LBB187:
 4291              		.loc 2 193 1 view .LVU1179
 4292              		.loc 2 195 2 view .LVU1180
 4293              		.syntax unified
 4294              	@ 195 "Middlewares/Third_Party/FreeRTOS/Source/portable/GCC/ARM_CM3/portmacro.h" 1
 4295 001a 4FF05003 			mov r3, #80												
 4296 001e 83F31188 		msr basepri, r3											
 4297 0022 BFF36F8F 		isb														
 4298 0026 BFF34F8F 		dsb														
 4299              	
 4300              	@ 0 "" 2
 4301              	.LVL292:
 4302              		.thumb
 4303              		.syntax unified
 4304              	.L327:
 4305              		.loc 2 195 2 is_stmt 0 view .LVU1181
 4306              	.LBE187:
 4307              	.LBE186:
 4308              		.loc 1 2906 2 is_stmt 1 discriminator 1 view .LVU1182
 4309              		.loc 1 2906 2 discriminator 1 view .LVU1183
 4310              		.loc 1 2906 2 discriminator 1 view .LVU1184
 4311 002a FEE7     		b	.L327
 4312              	.L332:
 4313              		.align	2
 4314              	.L331:
 4315 002c 00000000 		.word	.LANCHOR10
 4316 0030 00000000 		.word	vListInsert
 4317 0034 00000000 		.word	prvAddCurrentTaskToDelayedList
 4318              		.cfi_endproc
 4319              	.LFE30:
 4321              		.section	.text.vTaskPlaceOnUnorderedEventList,"ax",%progbits
 4322              		.align	1
 4323              		.global	vTaskPlaceOnUnorderedEventList
 4324              		.syntax unified
 4325              		.thumb
 4326              		.thumb_func
 4327              		.fpu softvfp
 4329              	vTaskPlaceOnUnorderedEventList:
 4330              	.LVL293:
 4331              	.LFB31:
 4332              		.loc 1 2922 1 view -0
 4333              		.cfi_startproc
 4334              		@ args = 0, pretend = 0, frame = 0
 4335              		@ frame_needed = 0, uses_anonymous_args = 0
 4336              		.loc 1 2923 2 view .LVU1186
 4337 0000 70B1     		cbz	r0, .L340
 4338              		.loc 1 2922 1 is_stmt 0 discriminator 2 view .LVU1187
 4339 0002 10B5     		push	{r4, lr}
ARM GAS  C:\Users\Test\AppData\Local\Temp\ccYEQElh.s 			page 76


 4340              	.LCFI35:
 4341              		.cfi_def_cfa_offset 8
 4342              		.cfi_offset 4, -8
 4343              		.cfi_offset 14, -4
 4344 0004 1446     		mov	r4, r2
 4345 0006 0246     		mov	r2, r0
 4346              	.LVL294:
 4347              		.loc 1 2923 29 is_stmt 1 discriminator 2 view .LVU1188
 4348              		.loc 1 2927 2 discriminator 2 view .LVU1189
 4349 0008 114B     		ldr	r3, .L341
 4350 000a 1B68     		ldr	r3, [r3]
 4351 000c 8BB9     		cbnz	r3, .L336
 4352              		.loc 1 2927 2 view .LVU1190
 4353              	.LBB188:
 4354              	.LBI188:
 4355              		.loc 2 191 30 view .LVU1191
 4356              	.LBB189:
 4357              		.loc 2 193 1 view .LVU1192
 4358              		.loc 2 195 2 view .LVU1193
 4359              		.syntax unified
 4360              	@ 195 "Middlewares/Third_Party/FreeRTOS/Source/portable/GCC/ARM_CM3/portmacro.h" 1
 4361 000e 4FF05003 			mov r3, #80												
 4362 0012 83F31188 		msr basepri, r3											
 4363 0016 BFF36F8F 		isb														
 4364 001a BFF34F8F 		dsb														
 4365              	
 4366              	@ 0 "" 2
 4367              	.LVL295:
 4368              		.thumb
 4369              		.syntax unified
 4370              	.L337:
 4371              		.loc 2 195 2 is_stmt 0 view .LVU1194
 4372              	.LBE189:
 4373              	.LBE188:
 4374              		.loc 1 2927 2 is_stmt 1 discriminator 2 view .LVU1195
 4375              		.loc 1 2927 2 discriminator 2 view .LVU1196
 4376              		.loc 1 2927 2 discriminator 2 view .LVU1197
 4377 001e FEE7     		b	.L337
 4378              	.LVL296:
 4379              	.L340:
 4380              	.LCFI36:
 4381              		.cfi_def_cfa_offset 0
 4382              		.cfi_restore 4
 4383              		.cfi_restore 14
 4384              		.loc 1 2923 2 view .LVU1198
 4385              	.LBB190:
 4386              	.LBI190:
 4387              		.loc 2 191 30 view .LVU1199
 4388              	.LBB191:
 4389              		.loc 2 193 1 view .LVU1200
 4390              		.loc 2 195 2 view .LVU1201
 4391              		.syntax unified
 4392              	@ 195 "Middlewares/Third_Party/FreeRTOS/Source/portable/GCC/ARM_CM3/portmacro.h" 1
 4393 0020 4FF05003 			mov r3, #80												
 4394 0024 83F31188 		msr basepri, r3											
 4395 0028 BFF36F8F 		isb														
 4396 002c BFF34F8F 		dsb														
ARM GAS  C:\Users\Test\AppData\Local\Temp\ccYEQElh.s 			page 77


 4397              	
 4398              	@ 0 "" 2
 4399              	.LVL297:
 4400              		.thumb
 4401              		.syntax unified
 4402              	.L335:
 4403              		.loc 2 195 2 is_stmt 0 view .LVU1202
 4404              	.LBE191:
 4405              	.LBE190:
 4406              		.loc 1 2923 2 is_stmt 1 discriminator 1 view .LVU1203
 4407              		.loc 1 2923 2 discriminator 1 view .LVU1204
 4408              		.loc 1 2923 2 discriminator 1 view .LVU1205
 4409 0030 FEE7     		b	.L335
 4410              	.LVL298:
 4411              	.L336:
 4412              	.LCFI37:
 4413              		.cfi_def_cfa_offset 8
 4414              		.cfi_offset 4, -8
 4415              		.cfi_offset 14, -4
 4416              		.loc 1 2927 43 discriminator 2 view .LVU1206
 4417              		.loc 1 2932 2 discriminator 2 view .LVU1207
 4418 0032 084B     		ldr	r3, .L341+4
 4419 0034 1868     		ldr	r0, [r3]
 4420              	.LVL299:
 4421              		.loc 1 2932 2 is_stmt 0 discriminator 2 view .LVU1208
 4422 0036 41F00041 		orr	r1, r1, #-2147483648
 4423              	.LVL300:
 4424              		.loc 1 2932 2 discriminator 2 view .LVU1209
 4425 003a 8161     		str	r1, [r0, #24]
 4426              		.loc 1 2939 2 is_stmt 1 discriminator 2 view .LVU1210
 4427              		.loc 1 2939 46 is_stmt 0 discriminator 2 view .LVU1211
 4428 003c 1968     		ldr	r1, [r3]
 4429              		.loc 1 2939 2 discriminator 2 view .LVU1212
 4430 003e 1831     		adds	r1, r1, #24
 4431 0040 1046     		mov	r0, r2
 4432 0042 054B     		ldr	r3, .L341+8
 4433 0044 9847     		blx	r3
 4434              	.LVL301:
 4435              		.loc 1 2941 2 is_stmt 1 discriminator 2 view .LVU1213
 4436 0046 0121     		movs	r1, #1
 4437 0048 2046     		mov	r0, r4
 4438 004a 044B     		ldr	r3, .L341+12
 4439 004c 9847     		blx	r3
 4440              	.LVL302:
 4441              		.loc 1 2942 1 is_stmt 0 discriminator 2 view .LVU1214
 4442 004e 10BD     		pop	{r4, pc}
 4443              	.LVL303:
 4444              	.L342:
 4445              		.loc 1 2942 1 discriminator 2 view .LVU1215
 4446              		.align	2
 4447              	.L341:
 4448 0050 00000000 		.word	.LANCHOR16
 4449 0054 00000000 		.word	.LANCHOR10
 4450 0058 00000000 		.word	vListInsertEnd
 4451 005c 00000000 		.word	prvAddCurrentTaskToDelayedList
 4452              		.cfi_endproc
 4453              	.LFE31:
ARM GAS  C:\Users\Test\AppData\Local\Temp\ccYEQElh.s 			page 78


 4455              		.section	.text.vTaskPlaceOnEventListRestricted,"ax",%progbits
 4456              		.align	1
 4457              		.global	vTaskPlaceOnEventListRestricted
 4458              		.syntax unified
 4459              		.thumb
 4460              		.thumb_func
 4461              		.fpu softvfp
 4463              	vTaskPlaceOnEventListRestricted:
 4464              	.LVL304:
 4465              	.LFB32:
 4466              		.loc 1 2948 2 is_stmt 1 view -0
 4467              		.cfi_startproc
 4468              		@ args = 0, pretend = 0, frame = 0
 4469              		@ frame_needed = 0, uses_anonymous_args = 0
 4470              		.loc 1 2948 2 is_stmt 0 view .LVU1217
 4471 0000 38B5     		push	{r3, r4, r5, lr}
 4472              	.LCFI38:
 4473              		.cfi_def_cfa_offset 16
 4474              		.cfi_offset 3, -16
 4475              		.cfi_offset 4, -12
 4476              		.cfi_offset 5, -8
 4477              		.cfi_offset 14, -4
 4478              		.loc 1 2949 3 is_stmt 1 view .LVU1218
 4479 0002 70B1     		cbz	r0, .L349
 4480 0004 0D46     		mov	r5, r1
 4481 0006 1446     		mov	r4, r2
 4482              		.loc 1 2949 30 discriminator 2 view .LVU1219
 4483              		.loc 1 2961 3 discriminator 2 view .LVU1220
 4484              		.loc 1 2961 47 is_stmt 0 discriminator 2 view .LVU1221
 4485 0008 0A4A     		ldr	r2, .L350
 4486              	.LVL305:
 4487              		.loc 1 2961 47 discriminator 2 view .LVU1222
 4488 000a 1168     		ldr	r1, [r2]
 4489              	.LVL306:
 4490              		.loc 1 2961 3 discriminator 2 view .LVU1223
 4491 000c 1831     		adds	r1, r1, #24
 4492 000e 0A4B     		ldr	r3, .L350+4
 4493 0010 9847     		blx	r3
 4494              	.LVL307:
 4495              		.loc 1 2966 3 is_stmt 1 discriminator 2 view .LVU1224
 4496              		.loc 1 2966 5 is_stmt 0 discriminator 2 view .LVU1225
 4497 0012 0CB1     		cbz	r4, .L346
 4498              		.loc 1 2968 17 view .LVU1226
 4499 0014 4FF0FF35 		mov	r5, #-1
 4500              	.LVL308:
 4501              	.L346:
 4502              		.loc 1 2971 57 is_stmt 1 view .LVU1227
 4503              		.loc 1 2972 3 view .LVU1228
 4504 0018 2146     		mov	r1, r4
 4505 001a 2846     		mov	r0, r5
 4506 001c 074B     		ldr	r3, .L350+8
 4507 001e 9847     		blx	r3
 4508              	.LVL309:
 4509              		.loc 1 2973 2 is_stmt 0 view .LVU1229
 4510 0020 38BD     		pop	{r3, r4, r5, pc}
 4511              	.LVL310:
 4512              	.L349:
ARM GAS  C:\Users\Test\AppData\Local\Temp\ccYEQElh.s 			page 79


 4513              		.loc 1 2949 3 is_stmt 1 view .LVU1230
 4514              	.LBB192:
 4515              	.LBI192:
 4516              		.loc 2 191 30 view .LVU1231
 4517              	.LBB193:
 4518              		.loc 2 193 1 view .LVU1232
 4519              		.loc 2 195 2 view .LVU1233
 4520              		.syntax unified
 4521              	@ 195 "Middlewares/Third_Party/FreeRTOS/Source/portable/GCC/ARM_CM3/portmacro.h" 1
 4522 0022 4FF05003 			mov r3, #80												
 4523 0026 83F31188 		msr basepri, r3											
 4524 002a BFF36F8F 		isb														
 4525 002e BFF34F8F 		dsb														
 4526              	
 4527              	@ 0 "" 2
 4528              	.LVL311:
 4529              		.thumb
 4530              		.syntax unified
 4531              	.L345:
 4532              		.loc 2 195 2 is_stmt 0 view .LVU1234
 4533              	.LBE193:
 4534              	.LBE192:
 4535              		.loc 1 2949 3 is_stmt 1 discriminator 1 view .LVU1235
 4536              		.loc 1 2949 3 discriminator 1 view .LVU1236
 4537              		.loc 1 2949 3 discriminator 1 view .LVU1237
 4538 0032 FEE7     		b	.L345
 4539              	.L351:
 4540              		.align	2
 4541              	.L350:
 4542 0034 00000000 		.word	.LANCHOR10
 4543 0038 00000000 		.word	vListInsertEnd
 4544 003c 00000000 		.word	prvAddCurrentTaskToDelayedList
 4545              		.cfi_endproc
 4546              	.LFE32:
 4548              		.section	.text.xTaskRemoveFromEventList,"ax",%progbits
 4549              		.align	1
 4550              		.global	xTaskRemoveFromEventList
 4551              		.syntax unified
 4552              		.thumb
 4553              		.thumb_func
 4554              		.fpu softvfp
 4556              	xTaskRemoveFromEventList:
 4557              	.LVL312:
 4558              	.LFB33:
 4559              		.loc 1 2979 1 view -0
 4560              		.cfi_startproc
 4561              		@ args = 0, pretend = 0, frame = 0
 4562              		@ frame_needed = 0, uses_anonymous_args = 0
 4563              		.loc 1 2979 1 is_stmt 0 view .LVU1239
 4564 0000 38B5     		push	{r3, r4, r5, lr}
 4565              	.LCFI39:
 4566              		.cfi_def_cfa_offset 16
 4567              		.cfi_offset 3, -16
 4568              		.cfi_offset 4, -12
 4569              		.cfi_offset 5, -8
 4570              		.cfi_offset 14, -4
 4571              		.loc 1 2980 1 is_stmt 1 view .LVU1240
ARM GAS  C:\Users\Test\AppData\Local\Temp\ccYEQElh.s 			page 80


 4572              		.loc 1 2981 1 view .LVU1241
 4573              		.loc 1 2996 2 view .LVU1242
 4574              		.loc 1 2996 31 is_stmt 0 view .LVU1243
 4575 0002 C368     		ldr	r3, [r0, #12]
 4576              		.loc 1 2996 17 view .LVU1244
 4577 0004 DC68     		ldr	r4, [r3, #12]
 4578              	.LVL313:
 4579              		.loc 1 2997 2 is_stmt 1 view .LVU1245
 4580 0006 24B3     		cbz	r4, .L361
 4581              		.loc 1 2997 32 discriminator 2 view .LVU1246
 4582              		.loc 1 2998 2 discriminator 2 view .LVU1247
 4583              		.loc 1 2998 11 is_stmt 0 discriminator 2 view .LVU1248
 4584 0008 04F11805 		add	r5, r4, #24
 4585 000c 2846     		mov	r0, r5
 4586              	.LVL314:
 4587              		.loc 1 2998 11 discriminator 2 view .LVU1249
 4588 000e 194B     		ldr	r3, .L362
 4589 0010 9847     		blx	r3
 4590              	.LVL315:
 4591              		.loc 1 3000 2 is_stmt 1 discriminator 2 view .LVU1250
 4592              		.loc 1 3000 27 is_stmt 0 discriminator 2 view .LVU1251
 4593 0012 194B     		ldr	r3, .L362+4
 4594 0014 1B68     		ldr	r3, [r3]
 4595              		.loc 1 3000 4 discriminator 2 view .LVU1252
 4596 0016 2BBB     		cbnz	r3, .L355
 4597              		.loc 1 3002 3 is_stmt 1 view .LVU1253
 4598              		.loc 1 3002 12 is_stmt 0 view .LVU1254
 4599 0018 251D     		adds	r5, r4, #4
 4600 001a 2846     		mov	r0, r5
 4601 001c 154B     		ldr	r3, .L362
 4602 001e 9847     		blx	r3
 4603              	.LVL316:
 4604              		.loc 1 3003 3 is_stmt 1 view .LVU1255
 4605              		.loc 1 3003 3 view .LVU1256
 4606 0020 E06A     		ldr	r0, [r4, #44]
 4607 0022 164B     		ldr	r3, .L362+8
 4608 0024 1B68     		ldr	r3, [r3]
 4609 0026 9842     		cmp	r0, r3
 4610 0028 01D9     		bls	.L356
 4611              		.loc 1 3003 3 discriminator 1 view .LVU1257
 4612 002a 144B     		ldr	r3, .L362+8
 4613 002c 1860     		str	r0, [r3]
 4614              	.L356:
 4615              		.loc 1 3003 3 discriminator 3 view .LVU1258
 4616              		.loc 1 3003 3 discriminator 3 view .LVU1259
 4617 002e 00EB8000 		add	r0, r0, r0, lsl #2
 4618 0032 2946     		mov	r1, r5
 4619 0034 124B     		ldr	r3, .L362+12
 4620 0036 03EB8000 		add	r0, r3, r0, lsl #2
 4621 003a 124B     		ldr	r3, .L362+16
 4622 003c 9847     		blx	r3
 4623              	.LVL317:
 4624              		.loc 1 3003 42 discriminator 3 view .LVU1260
 4625              	.L357:
 4626              		.loc 1 3012 2 view .LVU1261
 4627              		.loc 1 3012 20 is_stmt 0 view .LVU1262
 4628 003e E26A     		ldr	r2, [r4, #44]
ARM GAS  C:\Users\Test\AppData\Local\Temp\ccYEQElh.s 			page 81


 4629              		.loc 1 3012 47 view .LVU1263
 4630 0040 114B     		ldr	r3, .L362+20
 4631 0042 1B68     		ldr	r3, [r3]
 4632 0044 DB6A     		ldr	r3, [r3, #44]
 4633              		.loc 1 3012 4 view .LVU1264
 4634 0046 9A42     		cmp	r2, r3
 4635 0048 11D9     		bls	.L359
 4636              		.loc 1 3017 3 is_stmt 1 view .LVU1265
 4637              	.LVL318:
 4638              		.loc 1 3021 3 view .LVU1266
 4639              		.loc 1 3021 17 is_stmt 0 view .LVU1267
 4640 004a 0120     		movs	r0, #1
 4641 004c 0F4B     		ldr	r3, .L362+24
 4642 004e 1860     		str	r0, [r3]
 4643              	.LVL319:
 4644              	.L352:
 4645              		.loc 1 3043 1 view .LVU1268
 4646 0050 38BD     		pop	{r3, r4, r5, pc}
 4647              	.LVL320:
 4648              	.L361:
 4649              		.loc 1 2997 2 is_stmt 1 view .LVU1269
 4650              	.LBB194:
 4651              	.LBI194:
 4652              		.loc 2 191 30 view .LVU1270
 4653              	.LBB195:
 4654              		.loc 2 193 1 view .LVU1271
 4655              		.loc 2 195 2 view .LVU1272
 4656              		.syntax unified
 4657              	@ 195 "Middlewares/Third_Party/FreeRTOS/Source/portable/GCC/ARM_CM3/portmacro.h" 1
 4658 0052 4FF05003 			mov r3, #80												
 4659 0056 83F31188 		msr basepri, r3											
 4660 005a BFF36F8F 		isb														
 4661 005e BFF34F8F 		dsb														
 4662              	
 4663              	@ 0 "" 2
 4664              	.LVL321:
 4665              		.thumb
 4666              		.syntax unified
 4667              	.L354:
 4668              		.loc 2 195 2 is_stmt 0 view .LVU1273
 4669              	.LBE195:
 4670              	.LBE194:
 4671              		.loc 1 2997 2 is_stmt 1 discriminator 1 view .LVU1274
 4672              		.loc 1 2997 2 discriminator 1 view .LVU1275
 4673              		.loc 1 2997 2 discriminator 1 view .LVU1276
 4674 0062 FEE7     		b	.L354
 4675              	.LVL322:
 4676              	.L355:
 4677              		.loc 1 3009 3 view .LVU1277
 4678 0064 2946     		mov	r1, r5
 4679 0066 0A48     		ldr	r0, .L362+28
 4680 0068 064B     		ldr	r3, .L362+16
 4681 006a 9847     		blx	r3
 4682              	.LVL323:
 4683 006c E7E7     		b	.L357
 4684              	.L359:
 4685              		.loc 1 3025 11 is_stmt 0 view .LVU1278
ARM GAS  C:\Users\Test\AppData\Local\Temp\ccYEQElh.s 			page 82


 4686 006e 0020     		movs	r0, #0
 4687              	.LVL324:
 4688              		.loc 1 3042 2 is_stmt 1 view .LVU1279
 4689              		.loc 1 3042 9 is_stmt 0 view .LVU1280
 4690 0070 EEE7     		b	.L352
 4691              	.L363:
 4692 0072 00BF     		.align	2
 4693              	.L362:
 4694 0074 00000000 		.word	uxListRemove
 4695 0078 00000000 		.word	.LANCHOR16
 4696 007c 00000000 		.word	.LANCHOR13
 4697 0080 00000000 		.word	.LANCHOR4
 4698 0084 00000000 		.word	vListInsertEnd
 4699 0088 00000000 		.word	.LANCHOR10
 4700 008c 00000000 		.word	.LANCHOR20
 4701 0090 00000000 		.word	.LANCHOR1
 4702              		.cfi_endproc
 4703              	.LFE33:
 4705              		.section	.text.vTaskRemoveFromUnorderedEventList,"ax",%progbits
 4706              		.align	1
 4707              		.global	vTaskRemoveFromUnorderedEventList
 4708              		.syntax unified
 4709              		.thumb
 4710              		.thumb_func
 4711              		.fpu softvfp
 4713              	vTaskRemoveFromUnorderedEventList:
 4714              	.LVL325:
 4715              	.LFB34:
 4716              		.loc 1 3047 1 is_stmt 1 view -0
 4717              		.cfi_startproc
 4718              		@ args = 0, pretend = 0, frame = 0
 4719              		@ frame_needed = 0, uses_anonymous_args = 0
 4720              		.loc 1 3048 1 view .LVU1282
 4721              		.loc 1 3052 2 view .LVU1283
 4722 0000 1C4B     		ldr	r3, .L374
 4723 0002 1B68     		ldr	r3, [r3]
 4724 0004 43B9     		cbnz	r3, .L365
 4725              		.loc 1 3052 2 view .LVU1284
 4726              	.LBB196:
 4727              	.LBI196:
 4728              		.loc 2 191 30 view .LVU1285
 4729              	.LBB197:
 4730              		.loc 2 193 1 view .LVU1286
 4731              		.loc 2 195 2 view .LVU1287
 4732              		.syntax unified
 4733              	@ 195 "Middlewares/Third_Party/FreeRTOS/Source/portable/GCC/ARM_CM3/portmacro.h" 1
 4734 0006 4FF05003 			mov r3, #80												
 4735 000a 83F31188 		msr basepri, r3											
 4736 000e BFF36F8F 		isb														
 4737 0012 BFF34F8F 		dsb														
 4738              	
 4739              	@ 0 "" 2
 4740              	.LVL326:
 4741              		.thumb
 4742              		.syntax unified
 4743              	.L366:
 4744              		.loc 2 195 2 is_stmt 0 view .LVU1288
ARM GAS  C:\Users\Test\AppData\Local\Temp\ccYEQElh.s 			page 83


 4745              	.LBE197:
 4746              	.LBE196:
 4747              		.loc 1 3052 2 is_stmt 1 discriminator 1 view .LVU1289
 4748              		.loc 1 3052 2 discriminator 1 view .LVU1290
 4749              		.loc 1 3052 2 discriminator 1 view .LVU1291
 4750 0016 FEE7     		b	.L366
 4751              	.L365:
 4752              		.loc 1 3047 1 is_stmt 0 discriminator 2 view .LVU1292
 4753 0018 70B5     		push	{r4, r5, r6, lr}
 4754              	.LCFI40:
 4755              		.cfi_def_cfa_offset 16
 4756              		.cfi_offset 4, -16
 4757              		.cfi_offset 5, -12
 4758              		.cfi_offset 6, -8
 4759              		.cfi_offset 14, -4
 4760              		.loc 1 3052 49 is_stmt 1 discriminator 2 view .LVU1293
 4761              		.loc 1 3055 2 discriminator 2 view .LVU1294
 4762 001a 41F00041 		orr	r1, r1, #-2147483648
 4763              	.LVL327:
 4764              		.loc 1 3055 2 is_stmt 0 discriminator 2 view .LVU1295
 4765 001e 0160     		str	r1, [r0]
 4766              		.loc 1 3059 2 is_stmt 1 discriminator 2 view .LVU1296
 4767              		.loc 1 3059 17 is_stmt 0 discriminator 2 view .LVU1297
 4768 0020 C468     		ldr	r4, [r0, #12]
 4769              	.LVL328:
 4770              		.loc 1 3060 2 is_stmt 1 discriminator 2 view .LVU1298
 4771 0022 ECB1     		cbz	r4, .L373
 4772              		.loc 1 3060 32 discriminator 2 view .LVU1299
 4773              		.loc 1 3061 2 discriminator 2 view .LVU1300
 4774              		.loc 1 3061 11 is_stmt 0 discriminator 2 view .LVU1301
 4775 0024 144E     		ldr	r6, .L374+4
 4776 0026 B047     		blx	r6
 4777              	.LVL329:
 4778              		.loc 1 3066 2 is_stmt 1 discriminator 2 view .LVU1302
 4779              		.loc 1 3066 11 is_stmt 0 discriminator 2 view .LVU1303
 4780 0028 251D     		adds	r5, r4, #4
 4781 002a 2846     		mov	r0, r5
 4782 002c B047     		blx	r6
 4783              	.LVL330:
 4784              		.loc 1 3067 2 is_stmt 1 discriminator 2 view .LVU1304
 4785              		.loc 1 3067 2 discriminator 2 view .LVU1305
 4786 002e E06A     		ldr	r0, [r4, #44]
 4787 0030 124B     		ldr	r3, .L374+8
 4788 0032 1B68     		ldr	r3, [r3]
 4789 0034 9842     		cmp	r0, r3
 4790 0036 01D9     		bls	.L369
 4791              		.loc 1 3067 2 discriminator 1 view .LVU1306
 4792 0038 104B     		ldr	r3, .L374+8
 4793 003a 1860     		str	r0, [r3]
 4794              	.L369:
 4795              		.loc 1 3067 2 discriminator 3 view .LVU1307
 4796              		.loc 1 3067 2 discriminator 3 view .LVU1308
 4797 003c 00EB8000 		add	r0, r0, r0, lsl #2
 4798 0040 2946     		mov	r1, r5
 4799 0042 0F4B     		ldr	r3, .L374+12
 4800 0044 03EB8000 		add	r0, r3, r0, lsl #2
 4801 0048 0E4B     		ldr	r3, .L374+16
ARM GAS  C:\Users\Test\AppData\Local\Temp\ccYEQElh.s 			page 84


 4802 004a 9847     		blx	r3
 4803              	.LVL331:
 4804              		.loc 1 3067 41 discriminator 3 view .LVU1309
 4805              		.loc 1 3069 2 discriminator 3 view .LVU1310
 4806              		.loc 1 3069 20 is_stmt 0 discriminator 3 view .LVU1311
 4807 004c E26A     		ldr	r2, [r4, #44]
 4808              		.loc 1 3069 47 discriminator 3 view .LVU1312
 4809 004e 0E4B     		ldr	r3, .L374+20
 4810 0050 1B68     		ldr	r3, [r3]
 4811 0052 DB6A     		ldr	r3, [r3, #44]
 4812              		.loc 1 3069 4 discriminator 3 view .LVU1313
 4813 0054 9A42     		cmp	r2, r3
 4814 0056 02D9     		bls	.L364
 4815              		.loc 1 3075 3 is_stmt 1 view .LVU1314
 4816              		.loc 1 3075 17 is_stmt 0 view .LVU1315
 4817 0058 0C4B     		ldr	r3, .L374+24
 4818 005a 0122     		movs	r2, #1
 4819 005c 1A60     		str	r2, [r3]
 4820              	.L364:
 4821              		.loc 1 3077 1 view .LVU1316
 4822 005e 70BD     		pop	{r4, r5, r6, pc}
 4823              	.LVL332:
 4824              	.L373:
 4825              		.loc 1 3060 2 is_stmt 1 view .LVU1317
 4826              	.LBB198:
 4827              	.LBI198:
 4828              		.loc 2 191 30 view .LVU1318
 4829              	.LBB199:
 4830              		.loc 2 193 1 view .LVU1319
 4831              		.loc 2 195 2 view .LVU1320
 4832              		.syntax unified
 4833              	@ 195 "Middlewares/Third_Party/FreeRTOS/Source/portable/GCC/ARM_CM3/portmacro.h" 1
 4834 0060 4FF05003 			mov r3, #80												
 4835 0064 83F31188 		msr basepri, r3											
 4836 0068 BFF36F8F 		isb														
 4837 006c BFF34F8F 		dsb														
 4838              	
 4839              	@ 0 "" 2
 4840              	.LVL333:
 4841              		.thumb
 4842              		.syntax unified
 4843              	.L368:
 4844              		.loc 2 195 2 is_stmt 0 view .LVU1321
 4845              	.LBE199:
 4846              	.LBE198:
 4847              		.loc 1 3060 2 is_stmt 1 discriminator 2 view .LVU1322
 4848              		.loc 1 3060 2 discriminator 2 view .LVU1323
 4849              		.loc 1 3060 2 discriminator 2 view .LVU1324
 4850 0070 FEE7     		b	.L368
 4851              	.L375:
 4852 0072 00BF     		.align	2
 4853              	.L374:
 4854 0074 00000000 		.word	.LANCHOR16
 4855 0078 00000000 		.word	uxListRemove
 4856 007c 00000000 		.word	.LANCHOR13
 4857 0080 00000000 		.word	.LANCHOR4
 4858 0084 00000000 		.word	vListInsertEnd
ARM GAS  C:\Users\Test\AppData\Local\Temp\ccYEQElh.s 			page 85


 4859 0088 00000000 		.word	.LANCHOR10
 4860 008c 00000000 		.word	.LANCHOR20
 4861              		.cfi_endproc
 4862              	.LFE34:
 4864              		.section	.text.vTaskSetTimeOutState,"ax",%progbits
 4865              		.align	1
 4866              		.global	vTaskSetTimeOutState
 4867              		.syntax unified
 4868              		.thumb
 4869              		.thumb_func
 4870              		.fpu softvfp
 4872              	vTaskSetTimeOutState:
 4873              	.LVL334:
 4874              	.LFB35:
 4875              		.loc 1 3081 1 view -0
 4876              		.cfi_startproc
 4877              		@ args = 0, pretend = 0, frame = 0
 4878              		@ frame_needed = 0, uses_anonymous_args = 0
 4879              		.loc 1 3082 2 view .LVU1326
 4880 0000 60B1     		cbz	r0, .L381
 4881              		.loc 1 3081 1 is_stmt 0 discriminator 2 view .LVU1327
 4882 0002 10B5     		push	{r4, lr}
 4883              	.LCFI41:
 4884              		.cfi_def_cfa_offset 8
 4885              		.cfi_offset 4, -8
 4886              		.cfi_offset 14, -4
 4887 0004 0446     		mov	r4, r0
 4888              		.loc 1 3082 27 is_stmt 1 discriminator 2 view .LVU1328
 4889              		.loc 1 3083 2 discriminator 2 view .LVU1329
 4890 0006 0A4B     		ldr	r3, .L382
 4891 0008 9847     		blx	r3
 4892              	.LVL335:
 4893              		.loc 1 3085 3 discriminator 2 view .LVU1330
 4894              		.loc 1 3085 29 is_stmt 0 discriminator 2 view .LVU1331
 4895 000a 0A4B     		ldr	r3, .L382+4
 4896 000c 1B68     		ldr	r3, [r3]
 4897 000e 2360     		str	r3, [r4]
 4898              		.loc 1 3086 3 is_stmt 1 discriminator 2 view .LVU1332
 4899              		.loc 1 3086 30 is_stmt 0 discriminator 2 view .LVU1333
 4900 0010 094B     		ldr	r3, .L382+8
 4901 0012 1B68     		ldr	r3, [r3]
 4902 0014 6360     		str	r3, [r4, #4]
 4903              		.loc 1 3088 2 is_stmt 1 discriminator 2 view .LVU1334
 4904 0016 094B     		ldr	r3, .L382+12
 4905 0018 9847     		blx	r3
 4906              	.LVL336:
 4907              		.loc 1 3089 1 is_stmt 0 discriminator 2 view .LVU1335
 4908 001a 10BD     		pop	{r4, pc}
 4909              	.LVL337:
 4910              	.L381:
 4911              	.LCFI42:
 4912              		.cfi_def_cfa_offset 0
 4913              		.cfi_restore 4
 4914              		.cfi_restore 14
 4915              		.loc 1 3082 2 is_stmt 1 view .LVU1336
 4916              	.LBB200:
 4917              	.LBI200:
ARM GAS  C:\Users\Test\AppData\Local\Temp\ccYEQElh.s 			page 86


 4918              		.loc 2 191 30 view .LVU1337
 4919              	.LBB201:
 4920              		.loc 2 193 1 view .LVU1338
 4921              		.loc 2 195 2 view .LVU1339
 4922              		.syntax unified
 4923              	@ 195 "Middlewares/Third_Party/FreeRTOS/Source/portable/GCC/ARM_CM3/portmacro.h" 1
 4924 001c 4FF05003 			mov r3, #80												
 4925 0020 83F31188 		msr basepri, r3											
 4926 0024 BFF36F8F 		isb														
 4927 0028 BFF34F8F 		dsb														
 4928              	
 4929              	@ 0 "" 2
 4930              	.LVL338:
 4931              		.thumb
 4932              		.syntax unified
 4933              	.L378:
 4934              		.loc 2 195 2 is_stmt 0 view .LVU1340
 4935              	.LBE201:
 4936              	.LBE200:
 4937              		.loc 1 3082 2 is_stmt 1 discriminator 1 view .LVU1341
 4938              		.loc 1 3082 2 discriminator 1 view .LVU1342
 4939              		.loc 1 3082 2 discriminator 1 view .LVU1343
 4940 002c FEE7     		b	.L378
 4941              	.L383:
 4942 002e 00BF     		.align	2
 4943              	.L382:
 4944 0030 00000000 		.word	vPortEnterCritical
 4945 0034 00000000 		.word	.LANCHOR18
 4946 0038 00000000 		.word	.LANCHOR15
 4947 003c 00000000 		.word	vPortExitCritical
 4948              		.cfi_endproc
 4949              	.LFE35:
 4951              		.section	.text.vTaskInternalSetTimeOutState,"ax",%progbits
 4952              		.align	1
 4953              		.global	vTaskInternalSetTimeOutState
 4954              		.syntax unified
 4955              		.thumb
 4956              		.thumb_func
 4957              		.fpu softvfp
 4959              	vTaskInternalSetTimeOutState:
 4960              	.LVL339:
 4961              	.LFB36:
 4962              		.loc 1 3093 1 view -0
 4963              		.cfi_startproc
 4964              		@ args = 0, pretend = 0, frame = 0
 4965              		@ frame_needed = 0, uses_anonymous_args = 0
 4966              		@ link register save eliminated.
 4967              		.loc 1 3095 2 view .LVU1345
 4968              		.loc 1 3095 28 is_stmt 0 view .LVU1346
 4969 0000 034B     		ldr	r3, .L385
 4970 0002 1B68     		ldr	r3, [r3]
 4971 0004 0360     		str	r3, [r0]
 4972              		.loc 1 3096 2 is_stmt 1 view .LVU1347
 4973              		.loc 1 3096 29 is_stmt 0 view .LVU1348
 4974 0006 034B     		ldr	r3, .L385+4
 4975 0008 1B68     		ldr	r3, [r3]
 4976 000a 4360     		str	r3, [r0, #4]
ARM GAS  C:\Users\Test\AppData\Local\Temp\ccYEQElh.s 			page 87


 4977              		.loc 1 3097 1 view .LVU1349
 4978 000c 7047     		bx	lr
 4979              	.L386:
 4980 000e 00BF     		.align	2
 4981              	.L385:
 4982 0010 00000000 		.word	.LANCHOR18
 4983 0014 00000000 		.word	.LANCHOR15
 4984              		.cfi_endproc
 4985              	.LFE36:
 4987              		.section	.text.xTaskCheckForTimeOut,"ax",%progbits
 4988              		.align	1
 4989              		.global	xTaskCheckForTimeOut
 4990              		.syntax unified
 4991              		.thumb
 4992              		.thumb_func
 4993              		.fpu softvfp
 4995              	xTaskCheckForTimeOut:
 4996              	.LVL340:
 4997              	.LFB37:
 4998              		.loc 1 3101 1 is_stmt 1 view -0
 4999              		.cfi_startproc
 5000              		@ args = 0, pretend = 0, frame = 0
 5001              		@ frame_needed = 0, uses_anonymous_args = 0
 5002              		.loc 1 3102 1 view .LVU1351
 5003              		.loc 1 3104 2 view .LVU1352
 5004 0000 D8B1     		cbz	r0, .L399
 5005              		.loc 1 3101 1 is_stmt 0 discriminator 2 view .LVU1353
 5006 0002 70B5     		push	{r4, r5, r6, lr}
 5007              	.LCFI43:
 5008              		.cfi_def_cfa_offset 16
 5009              		.cfi_offset 4, -16
 5010              		.cfi_offset 5, -12
 5011              		.cfi_offset 6, -8
 5012              		.cfi_offset 14, -4
 5013 0004 0C46     		mov	r4, r1
 5014 0006 0546     		mov	r5, r0
 5015              		.loc 1 3104 27 is_stmt 1 discriminator 2 view .LVU1354
 5016              		.loc 1 3105 2 discriminator 2 view .LVU1355
 5017 0008 01B3     		cbz	r1, .L400
 5018              		.loc 1 3105 31 discriminator 2 view .LVU1356
 5019              		.loc 1 3107 2 discriminator 2 view .LVU1357
 5020 000a 1C4B     		ldr	r3, .L402
 5021 000c 9847     		blx	r3
 5022              	.LVL341:
 5023              	.LBB202:
 5024              		.loc 1 3110 3 discriminator 2 view .LVU1358
 5025              		.loc 1 3110 20 is_stmt 0 discriminator 2 view .LVU1359
 5026 000e 1C4B     		ldr	r3, .L402+4
 5027 0010 1968     		ldr	r1, [r3]
 5028              	.LVL342:
 5029              		.loc 1 3111 3 is_stmt 1 discriminator 2 view .LVU1360
 5030              		.loc 1 3111 62 is_stmt 0 discriminator 2 view .LVU1361
 5031 0012 6B68     		ldr	r3, [r5, #4]
 5032              		.loc 1 3111 20 discriminator 2 view .LVU1362
 5033 0014 C81A     		subs	r0, r1, r3
 5034              	.LVL343:
 5035              		.loc 1 3125 4 is_stmt 1 discriminator 2 view .LVU1363
ARM GAS  C:\Users\Test\AppData\Local\Temp\ccYEQElh.s 			page 88


 5036              		.loc 1 3125 8 is_stmt 0 discriminator 2 view .LVU1364
 5037 0016 2268     		ldr	r2, [r4]
 5038              		.loc 1 3125 6 discriminator 2 view .LVU1365
 5039 0018 B2F1FF3F 		cmp	r2, #-1
 5040 001c 27D0     		beq	.L395
 5041              		.loc 1 3135 3 is_stmt 1 view .LVU1366
 5042              		.loc 1 3135 25 is_stmt 0 view .LVU1367
 5043 001e 194E     		ldr	r6, .L402+8
 5044 0020 3668     		ldr	r6, [r6]
 5045              		.loc 1 3135 5 view .LVU1368
 5046 0022 D5F800C0 		ldr	ip, [r5]
 5047 0026 B445     		cmp	ip, r6
 5048 0028 01D0     		beq	.L393
 5049              		.loc 1 3135 56 discriminator 1 view .LVU1369
 5050 002a 8B42     		cmp	r3, r1
 5051 002c 24D9     		bls	.L396
 5052              	.L393:
 5053              		.loc 1 3144 8 is_stmt 1 view .LVU1370
 5054              		.loc 1 3144 10 is_stmt 0 view .LVU1371
 5055 002e 8242     		cmp	r2, r0
 5056 0030 15D8     		bhi	.L401
 5057              		.loc 1 3153 4 is_stmt 1 view .LVU1372
 5058              		.loc 1 3153 19 is_stmt 0 view .LVU1373
 5059 0032 0023     		movs	r3, #0
 5060 0034 2360     		str	r3, [r4]
 5061              		.loc 1 3154 4 is_stmt 1 view .LVU1374
 5062              	.LVL344:
 5063              		.loc 1 3154 12 is_stmt 0 view .LVU1375
 5064 0036 0124     		movs	r4, #1
 5065              	.LVL345:
 5066              		.loc 1 3154 12 view .LVU1376
 5067 0038 1AE0     		b	.L392
 5068              	.LVL346:
 5069              	.L399:
 5070              	.LCFI44:
 5071              		.cfi_def_cfa_offset 0
 5072              		.cfi_restore 4
 5073              		.cfi_restore 5
 5074              		.cfi_restore 6
 5075              		.cfi_restore 14
 5076              		.loc 1 3154 12 view .LVU1377
 5077              	.LBE202:
 5078              		.loc 1 3104 2 is_stmt 1 view .LVU1378
 5079              	.LBB203:
 5080              	.LBI203:
 5081              		.loc 2 191 30 view .LVU1379
 5082              	.LBB204:
 5083              		.loc 2 193 1 view .LVU1380
 5084              		.loc 2 195 2 view .LVU1381
 5085              		.syntax unified
 5086              	@ 195 "Middlewares/Third_Party/FreeRTOS/Source/portable/GCC/ARM_CM3/portmacro.h" 1
 5087 003a 4FF05003 			mov r3, #80												
 5088 003e 83F31188 		msr basepri, r3											
 5089 0042 BFF36F8F 		isb														
 5090 0046 BFF34F8F 		dsb														
 5091              	
 5092              	@ 0 "" 2
ARM GAS  C:\Users\Test\AppData\Local\Temp\ccYEQElh.s 			page 89


 5093              	.LVL347:
 5094              		.thumb
 5095              		.syntax unified
 5096              	.L389:
 5097              		.loc 2 195 2 is_stmt 0 view .LVU1382
 5098              	.LBE204:
 5099              	.LBE203:
 5100              		.loc 1 3104 2 is_stmt 1 discriminator 1 view .LVU1383
 5101              		.loc 1 3104 2 discriminator 1 view .LVU1384
 5102              		.loc 1 3104 2 discriminator 1 view .LVU1385
 5103 004a FEE7     		b	.L389
 5104              	.L400:
 5105              	.LCFI45:
 5106              		.cfi_def_cfa_offset 16
 5107              		.cfi_offset 4, -16
 5108              		.cfi_offset 5, -12
 5109              		.cfi_offset 6, -8
 5110              		.cfi_offset 14, -4
 5111              		.loc 1 3105 2 view .LVU1386
 5112              	.LBB205:
 5113              	.LBI205:
 5114              		.loc 2 191 30 view .LVU1387
 5115              	.LBB206:
 5116              		.loc 2 193 1 view .LVU1388
 5117              		.loc 2 195 2 view .LVU1389
 5118              		.syntax unified
 5119              	@ 195 "Middlewares/Third_Party/FreeRTOS/Source/portable/GCC/ARM_CM3/portmacro.h" 1
 5120 004c 4FF05003 			mov r3, #80												
 5121 0050 83F31188 		msr basepri, r3											
 5122 0054 BFF36F8F 		isb														
 5123 0058 BFF34F8F 		dsb														
 5124              	
 5125              	@ 0 "" 2
 5126              	.LVL348:
 5127              		.thumb
 5128              		.syntax unified
 5129              	.L391:
 5130              		.loc 2 195 2 is_stmt 0 view .LVU1390
 5131              	.LBE206:
 5132              	.LBE205:
 5133              		.loc 1 3105 2 is_stmt 1 discriminator 2 view .LVU1391
 5134              		.loc 1 3105 2 discriminator 2 view .LVU1392
 5135              		.loc 1 3105 2 discriminator 2 view .LVU1393
 5136 005c FEE7     		b	.L391
 5137              	.LVL349:
 5138              	.L401:
 5139              	.LBB207:
 5140              		.loc 1 3147 4 view .LVU1394
 5141              		.loc 1 3147 19 is_stmt 0 view .LVU1395
 5142 005e 5B1A     		subs	r3, r3, r1
 5143 0060 1344     		add	r3, r3, r2
 5144 0062 2360     		str	r3, [r4]
 5145              		.loc 1 3148 4 is_stmt 1 view .LVU1396
 5146 0064 2846     		mov	r0, r5
 5147              	.LVL350:
 5148              		.loc 1 3148 4 is_stmt 0 view .LVU1397
 5149 0066 084B     		ldr	r3, .L402+12
ARM GAS  C:\Users\Test\AppData\Local\Temp\ccYEQElh.s 			page 90


 5150 0068 9847     		blx	r3
 5151              	.LVL351:
 5152              		.loc 1 3149 4 is_stmt 1 view .LVU1398
 5153              		.loc 1 3149 12 is_stmt 0 view .LVU1399
 5154 006a 0024     		movs	r4, #0
 5155              	.LVL352:
 5156              		.loc 1 3149 12 view .LVU1400
 5157 006c 00E0     		b	.L392
 5158              	.LVL353:
 5159              	.L395:
 5160              		.loc 1 3130 13 view .LVU1401
 5161 006e 0024     		movs	r4, #0
 5162              	.LVL354:
 5163              	.L392:
 5164              		.loc 1 3130 13 view .LVU1402
 5165              	.LBE207:
 5166              		.loc 1 3157 2 is_stmt 1 view .LVU1403
 5167 0070 064B     		ldr	r3, .L402+16
 5168 0072 9847     		blx	r3
 5169              	.LVL355:
 5170              		.loc 1 3159 2 view .LVU1404
 5171              		.loc 1 3160 1 is_stmt 0 view .LVU1405
 5172 0074 2046     		mov	r0, r4
 5173 0076 70BD     		pop	{r4, r5, r6, pc}
 5174              	.LVL356:
 5175              	.L396:
 5176              	.LBB208:
 5177              		.loc 1 3142 12 view .LVU1406
 5178 0078 0124     		movs	r4, #1
 5179              	.LVL357:
 5180              		.loc 1 3142 12 view .LVU1407
 5181 007a F9E7     		b	.L392
 5182              	.L403:
 5183              		.align	2
 5184              	.L402:
 5185 007c 00000000 		.word	vPortEnterCritical
 5186 0080 00000000 		.word	.LANCHOR15
 5187 0084 00000000 		.word	.LANCHOR18
 5188 0088 00000000 		.word	vTaskInternalSetTimeOutState
 5189 008c 00000000 		.word	vPortExitCritical
 5190              	.LBE208:
 5191              		.cfi_endproc
 5192              	.LFE37:
 5194              		.section	.text.vTaskMissedYield,"ax",%progbits
 5195              		.align	1
 5196              		.global	vTaskMissedYield
 5197              		.syntax unified
 5198              		.thumb
 5199              		.thumb_func
 5200              		.fpu softvfp
 5202              	vTaskMissedYield:
 5203              	.LFB38:
 5204              		.loc 1 3164 1 is_stmt 1 view -0
 5205              		.cfi_startproc
 5206              		@ args = 0, pretend = 0, frame = 0
 5207              		@ frame_needed = 0, uses_anonymous_args = 0
 5208              		@ link register save eliminated.
ARM GAS  C:\Users\Test\AppData\Local\Temp\ccYEQElh.s 			page 91


 5209              		.loc 1 3165 2 view .LVU1409
 5210              		.loc 1 3165 16 is_stmt 0 view .LVU1410
 5211 0000 014B     		ldr	r3, .L405
 5212 0002 0122     		movs	r2, #1
 5213 0004 1A60     		str	r2, [r3]
 5214              		.loc 1 3166 1 view .LVU1411
 5215 0006 7047     		bx	lr
 5216              	.L406:
 5217              		.align	2
 5218              	.L405:
 5219 0008 00000000 		.word	.LANCHOR20
 5220              		.cfi_endproc
 5221              	.LFE38:
 5223              		.section	.text.uxTaskGetTaskNumber,"ax",%progbits
 5224              		.align	1
 5225              		.global	uxTaskGetTaskNumber
 5226              		.syntax unified
 5227              		.thumb
 5228              		.thumb_func
 5229              		.fpu softvfp
 5231              	uxTaskGetTaskNumber:
 5232              	.LVL358:
 5233              	.LFB39:
 5234              		.loc 1 3172 2 is_stmt 1 view -0
 5235              		.cfi_startproc
 5236              		@ args = 0, pretend = 0, frame = 0
 5237              		@ frame_needed = 0, uses_anonymous_args = 0
 5238              		@ link register save eliminated.
 5239              		.loc 1 3173 2 view .LVU1413
 5240              		.loc 1 3174 2 view .LVU1414
 5241              		.loc 1 3176 3 view .LVU1415
 5242              		.loc 1 3176 5 is_stmt 0 view .LVU1416
 5243 0000 08B1     		cbz	r0, .L409
 5244              		.loc 1 3178 4 is_stmt 1 view .LVU1417
 5245              	.LVL359:
 5246              		.loc 1 3179 4 view .LVU1418
 5247              		.loc 1 3179 13 is_stmt 0 view .LVU1419
 5248 0002 806C     		ldr	r0, [r0, #72]
 5249              	.LVL360:
 5250              		.loc 1 3179 13 view .LVU1420
 5251 0004 7047     		bx	lr
 5252              	.LVL361:
 5253              	.L409:
 5254              		.loc 1 3183 13 view .LVU1421
 5255 0006 0020     		movs	r0, #0
 5256              	.LVL362:
 5257              		.loc 1 3186 3 is_stmt 1 view .LVU1422
 5258              		.loc 1 3187 2 is_stmt 0 view .LVU1423
 5259 0008 7047     		bx	lr
 5260              		.cfi_endproc
 5261              	.LFE39:
 5263              		.section	.text.vTaskSetTaskNumber,"ax",%progbits
 5264              		.align	1
 5265              		.global	vTaskSetTaskNumber
 5266              		.syntax unified
 5267              		.thumb
 5268              		.thumb_func
ARM GAS  C:\Users\Test\AppData\Local\Temp\ccYEQElh.s 			page 92


 5269              		.fpu softvfp
 5271              	vTaskSetTaskNumber:
 5272              	.LVL363:
 5273              	.LFB40:
 5274              		.loc 1 3195 2 is_stmt 1 view -0
 5275              		.cfi_startproc
 5276              		@ args = 0, pretend = 0, frame = 0
 5277              		@ frame_needed = 0, uses_anonymous_args = 0
 5278              		@ link register save eliminated.
 5279              		.loc 1 3196 2 view .LVU1425
 5280              		.loc 1 3198 3 view .LVU1426
 5281              		.loc 1 3198 5 is_stmt 0 view .LVU1427
 5282 0000 00B1     		cbz	r0, .L410
 5283              		.loc 1 3200 4 is_stmt 1 view .LVU1428
 5284              	.LVL364:
 5285              		.loc 1 3201 4 view .LVU1429
 5286              		.loc 1 3201 24 is_stmt 0 view .LVU1430
 5287 0002 8164     		str	r1, [r0, #72]
 5288              	.LVL365:
 5289              	.L410:
 5290              		.loc 1 3203 2 view .LVU1431
 5291 0004 7047     		bx	lr
 5292              		.cfi_endproc
 5293              	.LFE40:
 5295              		.section	.text.vTaskGetInfo,"ax",%progbits
 5296              		.align	1
 5297              		.global	vTaskGetInfo
 5298              		.syntax unified
 5299              		.thumb
 5300              		.thumb_func
 5301              		.fpu softvfp
 5303              	vTaskGetInfo:
 5304              	.LVL366:
 5305              	.LFB44:
 5306              		.loc 1 3494 2 is_stmt 1 view -0
 5307              		.cfi_startproc
 5308              		@ args = 0, pretend = 0, frame = 0
 5309              		@ frame_needed = 0, uses_anonymous_args = 0
 5310              		.loc 1 3494 2 is_stmt 0 view .LVU1433
 5311 0000 70B5     		push	{r4, r5, r6, lr}
 5312              	.LCFI46:
 5313              		.cfi_def_cfa_offset 16
 5314              		.cfi_offset 4, -16
 5315              		.cfi_offset 5, -12
 5316              		.cfi_offset 6, -8
 5317              		.cfi_offset 14, -4
 5318 0002 0C46     		mov	r4, r1
 5319 0004 1646     		mov	r6, r2
 5320              		.loc 1 3495 2 is_stmt 1 view .LVU1434
 5321              		.loc 1 3498 3 view .LVU1435
 5322              		.loc 1 3498 11 is_stmt 0 view .LVU1436
 5323 0006 0546     		mov	r5, r0
 5324 0008 D0B1     		cbz	r0, .L421
 5325              	.LVL367:
 5326              	.L413:
 5327              		.loc 1 3500 3 is_stmt 1 discriminator 4 view .LVU1437
 5328              		.loc 1 3500 25 is_stmt 0 discriminator 4 view .LVU1438
ARM GAS  C:\Users\Test\AppData\Local\Temp\ccYEQElh.s 			page 93


 5329 000a 2560     		str	r5, [r4]
 5330              		.loc 1 3501 3 is_stmt 1 discriminator 4 view .LVU1439
 5331              		.loc 1 3501 47 is_stmt 0 discriminator 4 view .LVU1440
 5332 000c 05F13402 		add	r2, r5, #52
 5333              		.loc 1 3501 28 discriminator 4 view .LVU1441
 5334 0010 6260     		str	r2, [r4, #4]
 5335              		.loc 1 3502 3 is_stmt 1 discriminator 4 view .LVU1442
 5336              		.loc 1 3502 42 is_stmt 0 discriminator 4 view .LVU1443
 5337 0012 EA6A     		ldr	r2, [r5, #44]
 5338              		.loc 1 3502 35 discriminator 4 view .LVU1444
 5339 0014 2261     		str	r2, [r4, #16]
 5340              		.loc 1 3503 3 is_stmt 1 discriminator 4 view .LVU1445
 5341              		.loc 1 3503 36 is_stmt 0 discriminator 4 view .LVU1446
 5342 0016 2A6B     		ldr	r2, [r5, #48]
 5343              		.loc 1 3503 29 discriminator 4 view .LVU1447
 5344 0018 E261     		str	r2, [r4, #28]
 5345              		.loc 1 3504 3 is_stmt 1 discriminator 4 view .LVU1448
 5346              		.loc 1 3504 36 is_stmt 0 discriminator 4 view .LVU1449
 5347 001a 6A6C     		ldr	r2, [r5, #68]
 5348              		.loc 1 3504 29 discriminator 4 view .LVU1450
 5349 001c A260     		str	r2, [r4, #8]
 5350              		.loc 1 3508 4 is_stmt 1 discriminator 4 view .LVU1451
 5351              		.loc 1 3508 40 is_stmt 0 discriminator 4 view .LVU1452
 5352 001e EA6C     		ldr	r2, [r5, #76]
 5353              		.loc 1 3508 33 discriminator 4 view .LVU1453
 5354 0020 6261     		str	r2, [r4, #20]
 5355              		.loc 1 3522 4 is_stmt 1 discriminator 4 view .LVU1454
 5356              		.loc 1 3522 35 is_stmt 0 discriminator 4 view .LVU1455
 5357 0022 0022     		movs	r2, #0
 5358 0024 A261     		str	r2, [r4, #24]
 5359              		.loc 1 3529 3 is_stmt 1 discriminator 4 view .LVU1456
 5360              		.loc 1 3529 5 is_stmt 0 discriminator 4 view .LVU1457
 5361 0026 052B     		cmp	r3, #5
 5362 0028 19D0     		beq	.L414
 5363              		.loc 1 3531 4 is_stmt 1 view .LVU1458
 5364              		.loc 1 3531 14 is_stmt 0 view .LVU1459
 5365 002a 124A     		ldr	r2, .L425
 5366 002c 1268     		ldr	r2, [r2]
 5367              		.loc 1 3531 6 view .LVU1460
 5368 002e AA42     		cmp	r2, r5
 5369 0030 09D0     		beq	.L422
 5370              		.loc 1 3537 5 is_stmt 1 view .LVU1461
 5371              		.loc 1 3537 33 is_stmt 0 view .LVU1462
 5372 0032 2373     		strb	r3, [r4, #12]
 5373              		.loc 1 3544 6 is_stmt 1 view .LVU1463
 5374              		.loc 1 3544 8 is_stmt 0 view .LVU1464
 5375 0034 032B     		cmp	r3, #3
 5376 0036 09D0     		beq	.L423
 5377              	.LVL368:
 5378              	.L416:
 5379              		.loc 1 3566 3 is_stmt 1 view .LVU1465
 5380              		.loc 1 3566 5 is_stmt 0 view .LVU1466
 5381 0038 B6B9     		cbnz	r6, .L424
 5382              		.loc 1 3580 4 is_stmt 1 view .LVU1467
 5383              		.loc 1 3580 39 is_stmt 0 view .LVU1468
 5384 003a 0023     		movs	r3, #0
 5385 003c 2384     		strh	r3, [r4, #32]	@ movhi
ARM GAS  C:\Users\Test\AppData\Local\Temp\ccYEQElh.s 			page 94


 5386              	.L412:
 5387              		.loc 1 3582 2 view .LVU1469
 5388 003e 70BD     		pop	{r4, r5, r6, pc}
 5389              	.LVL369:
 5390              	.L421:
 5391              		.loc 1 3498 11 discriminator 1 view .LVU1470
 5392 0040 0C4A     		ldr	r2, .L425
 5393              	.LVL370:
 5394              		.loc 1 3498 11 discriminator 1 view .LVU1471
 5395 0042 1568     		ldr	r5, [r2]
 5396              	.LVL371:
 5397              		.loc 1 3498 11 discriminator 1 view .LVU1472
 5398 0044 E1E7     		b	.L413
 5399              	.LVL372:
 5400              	.L422:
 5401              		.loc 1 3533 5 is_stmt 1 view .LVU1473
 5402              		.loc 1 3533 33 is_stmt 0 view .LVU1474
 5403 0046 0023     		movs	r3, #0
 5404              	.LVL373:
 5405              		.loc 1 3533 33 view .LVU1475
 5406 0048 2373     		strb	r3, [r4, #12]
 5407 004a F5E7     		b	.L416
 5408              	.LVL374:
 5409              	.L423:
 5410              		.loc 1 3546 7 is_stmt 1 view .LVU1476
 5411 004c 0A4B     		ldr	r3, .L425+4
 5412              	.LVL375:
 5413              		.loc 1 3546 7 is_stmt 0 view .LVU1477
 5414 004e 9847     		blx	r3
 5415              	.LVL376:
 5416              		.loc 1 3548 8 is_stmt 1 view .LVU1478
 5417              		.loc 1 3548 12 is_stmt 0 view .LVU1479
 5418 0050 AB6A     		ldr	r3, [r5, #40]
 5419              		.loc 1 3548 10 view .LVU1480
 5420 0052 0BB1     		cbz	r3, .L417
 5421              		.loc 1 3550 9 is_stmt 1 view .LVU1481
 5422              		.loc 1 3550 37 is_stmt 0 view .LVU1482
 5423 0054 0223     		movs	r3, #2
 5424 0056 2373     		strb	r3, [r4, #12]
 5425              	.L417:
 5426              		.loc 1 3553 7 is_stmt 1 view .LVU1483
 5427              		.loc 1 3553 16 is_stmt 0 view .LVU1484
 5428 0058 084B     		ldr	r3, .L425+8
 5429 005a 9847     		blx	r3
 5430              	.LVL377:
 5431 005c ECE7     		b	.L416
 5432              	.LVL378:
 5433              	.L414:
 5434              		.loc 1 3561 4 is_stmt 1 view .LVU1485
 5435              		.loc 1 3561 34 is_stmt 0 view .LVU1486
 5436 005e 2846     		mov	r0, r5
 5437 0060 074B     		ldr	r3, .L425+12
 5438              	.LVL379:
 5439              		.loc 1 3561 34 view .LVU1487
 5440 0062 9847     		blx	r3
 5441              	.LVL380:
 5442              		.loc 1 3561 32 view .LVU1488
ARM GAS  C:\Users\Test\AppData\Local\Temp\ccYEQElh.s 			page 95


 5443 0064 2073     		strb	r0, [r4, #12]
 5444 0066 E7E7     		b	.L416
 5445              	.L424:
 5446              		.loc 1 3574 5 is_stmt 1 view .LVU1489
 5447              		.loc 1 3574 42 is_stmt 0 view .LVU1490
 5448 0068 286B     		ldr	r0, [r5, #48]
 5449 006a 064B     		ldr	r3, .L425+16
 5450 006c 9847     		blx	r3
 5451              	.LVL381:
 5452              		.loc 1 3574 40 view .LVU1491
 5453 006e 2084     		strh	r0, [r4, #32]	@ movhi
 5454 0070 E5E7     		b	.L412
 5455              	.L426:
 5456 0072 00BF     		.align	2
 5457              	.L425:
 5458 0074 00000000 		.word	.LANCHOR10
 5459 0078 00000000 		.word	vTaskSuspendAll
 5460 007c 00000000 		.word	xTaskResumeAll
 5461 0080 00000000 		.word	eTaskGetState
 5462 0084 00000000 		.word	prvTaskCheckFreeStackSpace
 5463              		.cfi_endproc
 5464              	.LFE44:
 5466              		.section	.text.prvListTasksWithinSingleList,"ax",%progbits
 5467              		.align	1
 5468              		.syntax unified
 5469              		.thumb
 5470              		.thumb_func
 5471              		.fpu softvfp
 5473              	prvListTasksWithinSingleList:
 5474              	.LVL382:
 5475              	.LFB45:
 5476              		.loc 1 3590 2 is_stmt 1 view -0
 5477              		.cfi_startproc
 5478              		@ args = 0, pretend = 0, frame = 0
 5479              		@ frame_needed = 0, uses_anonymous_args = 0
 5480              		.loc 1 3590 2 is_stmt 0 view .LVU1493
 5481 0000 2DE9F84F 		push	{r3, r4, r5, r6, r7, r8, r9, r10, fp, lr}
 5482              	.LCFI47:
 5483              		.cfi_def_cfa_offset 40
 5484              		.cfi_offset 3, -40
 5485              		.cfi_offset 4, -36
 5486              		.cfi_offset 5, -32
 5487              		.cfi_offset 6, -28
 5488              		.cfi_offset 7, -24
 5489              		.cfi_offset 8, -20
 5490              		.cfi_offset 9, -16
 5491              		.cfi_offset 10, -12
 5492              		.cfi_offset 11, -8
 5493              		.cfi_offset 14, -4
 5494              		.loc 1 3591 22 is_stmt 1 view .LVU1494
 5495              		.loc 1 3592 2 view .LVU1495
 5496              	.LVL383:
 5497              		.loc 1 3594 3 view .LVU1496
 5498              		.loc 1 3594 7 is_stmt 0 view .LVU1497
 5499 0004 0C68     		ldr	r4, [r1]
 5500              		.loc 1 3594 5 view .LVU1498
 5501 0006 44B3     		cbz	r4, .L427
ARM GAS  C:\Users\Test\AppData\Local\Temp\ccYEQElh.s 			page 96


 5502 0008 0746     		mov	r7, r0
 5503 000a 0D46     		mov	r5, r1
 5504 000c 9046     		mov	r8, r2
 5505              	.LBB209:
 5506              		.loc 1 3596 4 is_stmt 1 view .LVU1499
 5507              	.LVL384:
 5508              		.loc 1 3596 4 view .LVU1500
 5509 000e 4B68     		ldr	r3, [r1, #4]
 5510 0010 5B68     		ldr	r3, [r3, #4]
 5511 0012 4B60     		str	r3, [r1, #4]
 5512              		.loc 1 3596 4 view .LVU1501
 5513 0014 01F10809 		add	r9, r1, #8
 5514 0018 4B45     		cmp	r3, r9
 5515 001a 04D0     		beq	.L433
 5516              	.L429:
 5517              		.loc 1 3596 4 discriminator 3 view .LVU1502
 5518 001c 6B68     		ldr	r3, [r5, #4]
 5519 001e D3F80CA0 		ldr	r10, [r3, #12]
 5520              	.LVL385:
 5521              		.loc 1 3596 4 is_stmt 0 discriminator 3 view .LVU1503
 5522              	.LBE209:
 5523              		.loc 1 3592 14 discriminator 3 view .LVU1504
 5524 0022 0024     		movs	r4, #0
 5525 0024 11E0     		b	.L431
 5526              	.LVL386:
 5527              	.L433:
 5528              	.LBB210:
 5529              		.loc 1 3596 4 is_stmt 1 discriminator 1 view .LVU1505
 5530 0026 5B68     		ldr	r3, [r3, #4]
 5531 0028 4B60     		str	r3, [r1, #4]
 5532 002a F7E7     		b	.L429
 5533              	.LVL387:
 5534              	.L430:
 5535              		.loc 1 3596 4 is_stmt 0 discriminator 1 view .LVU1506
 5536              	.LBE210:
 5537              	.LBB211:
 5538              		.loc 1 3604 5 is_stmt 1 discriminator 3 view .LVU1507
 5539 002c 6B68     		ldr	r3, [r5, #4]
 5540 002e DE68     		ldr	r6, [r3, #12]
 5541              	.LVL388:
 5542              		.loc 1 3604 5 is_stmt 0 discriminator 3 view .LVU1508
 5543              	.LBE211:
 5544              		.loc 1 3604 53 is_stmt 1 discriminator 3 view .LVU1509
 5545              		.loc 1 3605 5 discriminator 3 view .LVU1510
 5546              		.loc 1 3605 67 is_stmt 0 discriminator 3 view .LVU1511
 5547 0030 04EBC401 		add	r1, r4, r4, lsl #3
 5548              		.loc 1 3605 5 discriminator 3 view .LVU1512
 5549 0034 4346     		mov	r3, r8
 5550 0036 0122     		movs	r2, #1
 5551 0038 07EB8101 		add	r1, r7, r1, lsl #2
 5552 003c 3046     		mov	r0, r6
 5553 003e DFF820B0 		ldr	fp, .L434
 5554 0042 D847     		blx	fp
 5555              	.LVL389:
 5556              		.loc 1 3606 5 is_stmt 1 discriminator 3 view .LVU1513
 5557              		.loc 1 3606 11 is_stmt 0 discriminator 3 view .LVU1514
 5558 0044 0134     		adds	r4, r4, #1
ARM GAS  C:\Users\Test\AppData\Local\Temp\ccYEQElh.s 			page 97


 5559              	.LVL390:
 5560              		.loc 1 3607 11 is_stmt 1 discriminator 3 view .LVU1515
 5561              		.loc 1 3607 4 is_stmt 0 discriminator 3 view .LVU1516
 5562 0046 B245     		cmp	r10, r6
 5563 0048 07D0     		beq	.L427
 5564              	.LVL391:
 5565              	.L431:
 5566              		.loc 1 3596 53 is_stmt 1 discriminator 4 view .LVU1517
 5567              		.loc 1 3602 4 discriminator 4 view .LVU1518
 5568              	.LBB212:
 5569              		.loc 1 3604 5 discriminator 4 view .LVU1519
 5570              		.loc 1 3604 5 discriminator 4 view .LVU1520
 5571 004a 6B68     		ldr	r3, [r5, #4]
 5572 004c 5968     		ldr	r1, [r3, #4]
 5573 004e 6960     		str	r1, [r5, #4]
 5574              		.loc 1 3604 5 discriminator 4 view .LVU1521
 5575 0050 8945     		cmp	r9, r1
 5576 0052 EBD1     		bne	.L430
 5577              		.loc 1 3604 5 discriminator 1 view .LVU1522
 5578 0054 4B68     		ldr	r3, [r1, #4]
 5579 0056 6B60     		str	r3, [r5, #4]
 5580 0058 E8E7     		b	.L430
 5581              	.LVL392:
 5582              	.L427:
 5583              		.loc 1 3604 5 is_stmt 0 discriminator 1 view .LVU1523
 5584              	.LBE212:
 5585              		.loc 1 3615 2 view .LVU1524
 5586 005a 2046     		mov	r0, r4
 5587 005c BDE8F88F 		pop	{r3, r4, r5, r6, r7, r8, r9, r10, fp, pc}
 5588              	.L435:
 5589              		.align	2
 5590              	.L434:
 5591 0060 00000000 		.word	vTaskGetInfo
 5592              		.cfi_endproc
 5593              	.LFE45:
 5595              		.section	.text.uxTaskGetSystemState,"ax",%progbits
 5596              		.align	1
 5597              		.global	uxTaskGetSystemState
 5598              		.syntax unified
 5599              		.thumb
 5600              		.thumb_func
 5601              		.fpu softvfp
 5603              	uxTaskGetSystemState:
 5604              	.LVL393:
 5605              	.LFB27:
 5606              		.loc 1 2404 2 is_stmt 1 view -0
 5607              		.cfi_startproc
 5608              		@ args = 0, pretend = 0, frame = 0
 5609              		@ frame_needed = 0, uses_anonymous_args = 0
 5610              		.loc 1 2404 2 is_stmt 0 view .LVU1526
 5611 0000 2DE9F041 		push	{r4, r5, r6, r7, r8, lr}
 5612              	.LCFI48:
 5613              		.cfi_def_cfa_offset 24
 5614              		.cfi_offset 4, -24
 5615              		.cfi_offset 5, -20
 5616              		.cfi_offset 6, -16
 5617              		.cfi_offset 7, -12
ARM GAS  C:\Users\Test\AppData\Local\Temp\ccYEQElh.s 			page 98


 5618              		.cfi_offset 8, -8
 5619              		.cfi_offset 14, -4
 5620 0004 0746     		mov	r7, r0
 5621 0006 0C46     		mov	r4, r1
 5622 0008 1646     		mov	r6, r2
 5623              		.loc 1 2405 2 is_stmt 1 view .LVU1527
 5624              	.LVL394:
 5625              		.loc 1 2407 3 view .LVU1528
 5626 000a 234B     		ldr	r3, .L441
 5627 000c 9847     		blx	r3
 5628              	.LVL395:
 5629              		.loc 1 2410 4 view .LVU1529
 5630              		.loc 1 2410 20 is_stmt 0 view .LVU1530
 5631 000e 234B     		ldr	r3, .L441+4
 5632 0010 1B68     		ldr	r3, [r3]
 5633              		.loc 1 2410 6 view .LVU1531
 5634 0012 A342     		cmp	r3, r4
 5635 0014 39D8     		bhi	.L439
 5636              		.loc 1 2405 26 view .LVU1532
 5637 0016 3824     		movs	r4, #56
 5638              	.LVL396:
 5639              		.loc 1 2405 14 view .LVU1533
 5640 0018 0025     		movs	r5, #0
 5641              	.LVL397:
 5642              	.L438:
 5643              		.loc 1 2414 5 is_stmt 1 discriminator 1 view .LVU1534
 5644              		.loc 1 2416 6 discriminator 1 view .LVU1535
 5645              		.loc 1 2416 13 is_stmt 0 discriminator 1 view .LVU1536
 5646 001a 013C     		subs	r4, r4, #1
 5647              	.LVL398:
 5648              		.loc 1 2417 6 is_stmt 1 discriminator 1 view .LVU1537
 5649              		.loc 1 2417 66 is_stmt 0 discriminator 1 view .LVU1538
 5650 001c 05EBC500 		add	r0, r5, r5, lsl #3
 5651              		.loc 1 2417 16 discriminator 1 view .LVU1539
 5652 0020 04EB8401 		add	r1, r4, r4, lsl #2
 5653 0024 0122     		movs	r2, #1
 5654 0026 1E4B     		ldr	r3, .L441+8
 5655 0028 03EB8101 		add	r1, r3, r1, lsl #2
 5656 002c 07EB8000 		add	r0, r7, r0, lsl #2
 5657 0030 1C4B     		ldr	r3, .L441+12
 5658 0032 9847     		blx	r3
 5659              	.LVL399:
 5660              		.loc 1 2417 13 discriminator 1 view .LVU1540
 5661 0034 0544     		add	r5, r5, r0
 5662              	.LVL400:
 5663              		.loc 1 2419 12 is_stmt 1 discriminator 1 view .LVU1541
 5664              		.loc 1 2419 5 is_stmt 0 discriminator 1 view .LVU1542
 5665 0036 002C     		cmp	r4, #0
 5666 0038 EFD1     		bne	.L438
 5667              		.loc 1 2423 5 is_stmt 1 view .LVU1543
 5668              		.loc 1 2423 65 is_stmt 0 view .LVU1544
 5669 003a 05EBC500 		add	r0, r5, r5, lsl #3
 5670              		.loc 1 2423 15 view .LVU1545
 5671 003e 1A4B     		ldr	r3, .L441+16
 5672 0040 1968     		ldr	r1, [r3]
 5673 0042 0222     		movs	r2, #2
 5674 0044 07EB8000 		add	r0, r7, r0, lsl #2
ARM GAS  C:\Users\Test\AppData\Local\Temp\ccYEQElh.s 			page 99


 5675 0048 DFF85880 		ldr	r8, .L441+12
 5676 004c C047     		blx	r8
 5677              	.LVL401:
 5678              		.loc 1 2423 12 view .LVU1546
 5679 004e 0544     		add	r5, r5, r0
 5680              	.LVL402:
 5681              		.loc 1 2424 5 is_stmt 1 view .LVU1547
 5682              		.loc 1 2424 65 is_stmt 0 view .LVU1548
 5683 0050 05EBC500 		add	r0, r5, r5, lsl #3
 5684              		.loc 1 2424 15 view .LVU1549
 5685 0054 154B     		ldr	r3, .L441+20
 5686 0056 1968     		ldr	r1, [r3]
 5687 0058 0222     		movs	r2, #2
 5688 005a 07EB8000 		add	r0, r7, r0, lsl #2
 5689 005e C047     		blx	r8
 5690              	.LVL403:
 5691              		.loc 1 2424 12 view .LVU1550
 5692 0060 0544     		add	r5, r5, r0
 5693              	.LVL404:
 5694              		.loc 1 2430 6 is_stmt 1 view .LVU1551
 5695              		.loc 1 2430 66 is_stmt 0 view .LVU1552
 5696 0062 05EBC500 		add	r0, r5, r5, lsl #3
 5697              		.loc 1 2430 16 view .LVU1553
 5698 0066 0422     		movs	r2, #4
 5699 0068 1149     		ldr	r1, .L441+24
 5700 006a 07EB8000 		add	r0, r7, r0, lsl #2
 5701 006e C047     		blx	r8
 5702              	.LVL405:
 5703              		.loc 1 2430 13 view .LVU1554
 5704 0070 2C18     		adds	r4, r5, r0
 5705              	.LVL406:
 5706              		.loc 1 2438 6 is_stmt 1 view .LVU1555
 5707              		.loc 1 2438 66 is_stmt 0 view .LVU1556
 5708 0072 04EBC400 		add	r0, r4, r4, lsl #3
 5709              		.loc 1 2438 16 view .LVU1557
 5710 0076 0322     		movs	r2, #3
 5711 0078 0E49     		ldr	r1, .L441+28
 5712 007a 07EB8000 		add	r0, r7, r0, lsl #2
 5713 007e C047     		blx	r8
 5714              	.LVL407:
 5715              		.loc 1 2438 13 view .LVU1558
 5716 0080 0444     		add	r4, r4, r0
 5717              	.LVL408:
 5718              		.loc 1 2455 6 is_stmt 1 view .LVU1559
 5719              		.loc 1 2455 8 is_stmt 0 view .LVU1560
 5720 0082 1EB1     		cbz	r6, .L437
 5721              		.loc 1 2457 7 is_stmt 1 view .LVU1561
 5722              		.loc 1 2457 24 is_stmt 0 view .LVU1562
 5723 0084 0023     		movs	r3, #0
 5724 0086 3360     		str	r3, [r6]
 5725 0088 00E0     		b	.L437
 5726              	.LVL409:
 5727              	.L439:
 5728              		.loc 1 2405 14 view .LVU1563
 5729 008a 0024     		movs	r4, #0
 5730              	.LVL410:
 5731              	.L437:
ARM GAS  C:\Users\Test\AppData\Local\Temp\ccYEQElh.s 			page 100


 5732              		.loc 1 2464 29 is_stmt 1 view .LVU1564
 5733              		.loc 1 2467 3 view .LVU1565
 5734              		.loc 1 2467 12 is_stmt 0 view .LVU1566
 5735 008c 0A4B     		ldr	r3, .L441+32
 5736 008e 9847     		blx	r3
 5737              	.LVL411:
 5738              		.loc 1 2469 3 is_stmt 1 view .LVU1567
 5739              		.loc 1 2470 2 is_stmt 0 view .LVU1568
 5740 0090 2046     		mov	r0, r4
 5741 0092 BDE8F081 		pop	{r4, r5, r6, r7, r8, pc}
 5742              	.LVL412:
 5743              	.L442:
 5744              		.loc 1 2470 2 view .LVU1569
 5745 0096 00BF     		.align	2
 5746              	.L441:
 5747 0098 00000000 		.word	vTaskSuspendAll
 5748 009c 00000000 		.word	.LANCHOR9
 5749 00a0 00000000 		.word	.LANCHOR4
 5750 00a4 00000000 		.word	prvListTasksWithinSingleList
 5751 00a8 00000000 		.word	.LANCHOR2
 5752 00ac 00000000 		.word	.LANCHOR8
 5753 00b0 00000000 		.word	.LANCHOR7
 5754 00b4 00000000 		.word	.LANCHOR0
 5755 00b8 00000000 		.word	xTaskResumeAll
 5756              		.cfi_endproc
 5757              	.LFE27:
 5759              		.section	.text.uxTaskGetStackHighWaterMark,"ax",%progbits
 5760              		.align	1
 5761              		.global	uxTaskGetStackHighWaterMark
 5762              		.syntax unified
 5763              		.thumb
 5764              		.thumb_func
 5765              		.fpu softvfp
 5767              	uxTaskGetStackHighWaterMark:
 5768              	.LVL413:
 5769              	.LFB47:
 5770              		.loc 1 3643 2 is_stmt 1 view -0
 5771              		.cfi_startproc
 5772              		@ args = 0, pretend = 0, frame = 0
 5773              		@ frame_needed = 0, uses_anonymous_args = 0
 5774              		.loc 1 3643 2 is_stmt 0 view .LVU1571
 5775 0000 08B5     		push	{r3, lr}
 5776              	.LCFI49:
 5777              		.cfi_def_cfa_offset 8
 5778              		.cfi_offset 3, -8
 5779              		.cfi_offset 14, -4
 5780              		.loc 1 3644 2 is_stmt 1 view .LVU1572
 5781              		.loc 1 3645 2 view .LVU1573
 5782              		.loc 1 3646 2 view .LVU1574
 5783              		.loc 1 3648 3 view .LVU1575
 5784              		.loc 1 3648 11 is_stmt 0 view .LVU1576
 5785 0002 0346     		mov	r3, r0
 5786 0004 18B1     		cbz	r0, .L446
 5787              	.LVL414:
 5788              	.L444:
 5789              		.loc 1 3652 4 is_stmt 1 discriminator 4 view .LVU1577
 5790              		.loc 1 3660 3 discriminator 4 view .LVU1578
ARM GAS  C:\Users\Test\AppData\Local\Temp\ccYEQElh.s 			page 101


 5791              		.loc 1 3660 30 is_stmt 0 discriminator 4 view .LVU1579
 5792 0006 186B     		ldr	r0, [r3, #48]
 5793 0008 024B     		ldr	r3, .L447
 5794              	.LVL415:
 5795              		.loc 1 3660 30 discriminator 4 view .LVU1580
 5796 000a 9847     		blx	r3
 5797              	.LVL416:
 5798              		.loc 1 3662 3 is_stmt 1 discriminator 4 view .LVU1581
 5799              		.loc 1 3663 2 is_stmt 0 discriminator 4 view .LVU1582
 5800 000c 08BD     		pop	{r3, pc}
 5801              	.LVL417:
 5802              	.L446:
 5803              		.loc 1 3648 11 discriminator 1 view .LVU1583
 5804 000e 024B     		ldr	r3, .L447+4
 5805 0010 1B68     		ldr	r3, [r3]
 5806              	.LVL418:
 5807              		.loc 1 3648 11 discriminator 1 view .LVU1584
 5808 0012 F8E7     		b	.L444
 5809              	.L448:
 5810              		.align	2
 5811              	.L447:
 5812 0014 00000000 		.word	prvTaskCheckFreeStackSpace
 5813 0018 00000000 		.word	.LANCHOR10
 5814              		.cfi_endproc
 5815              	.LFE47:
 5817              		.section	.text.xTaskGetCurrentTaskHandle,"ax",%progbits
 5818              		.align	1
 5819              		.global	xTaskGetCurrentTaskHandle
 5820              		.syntax unified
 5821              		.thumb
 5822              		.thumb_func
 5823              		.fpu softvfp
 5825              	xTaskGetCurrentTaskHandle:
 5826              	.LFB50:
 5827              		.loc 1 3751 2 is_stmt 1 view -0
 5828              		.cfi_startproc
 5829              		@ args = 0, pretend = 0, frame = 0
 5830              		@ frame_needed = 0, uses_anonymous_args = 0
 5831              		@ link register save eliminated.
 5832              		.loc 1 3752 2 view .LVU1586
 5833              		.loc 1 3757 3 view .LVU1587
 5834              		.loc 1 3757 11 is_stmt 0 view .LVU1588
 5835 0000 014B     		ldr	r3, .L450
 5836 0002 1868     		ldr	r0, [r3]
 5837              	.LVL419:
 5838              		.loc 1 3759 3 is_stmt 1 view .LVU1589
 5839              		.loc 1 3760 2 is_stmt 0 view .LVU1590
 5840 0004 7047     		bx	lr
 5841              	.L451:
 5842 0006 00BF     		.align	2
 5843              	.L450:
 5844 0008 00000000 		.word	.LANCHOR10
 5845              		.cfi_endproc
 5846              	.LFE50:
 5848              		.section	.text.xTaskGetSchedulerState,"ax",%progbits
 5849              		.align	1
 5850              		.global	xTaskGetSchedulerState
ARM GAS  C:\Users\Test\AppData\Local\Temp\ccYEQElh.s 			page 102


 5851              		.syntax unified
 5852              		.thumb
 5853              		.thumb_func
 5854              		.fpu softvfp
 5856              	xTaskGetSchedulerState:
 5857              	.LFB51:
 5858              		.loc 1 3768 2 is_stmt 1 view -0
 5859              		.cfi_startproc
 5860              		@ args = 0, pretend = 0, frame = 0
 5861              		@ frame_needed = 0, uses_anonymous_args = 0
 5862              		@ link register save eliminated.
 5863              		.loc 1 3769 2 view .LVU1592
 5864              		.loc 1 3771 3 view .LVU1593
 5865              		.loc 1 3771 25 is_stmt 0 view .LVU1594
 5866 0000 054B     		ldr	r3, .L457
 5867 0002 1B68     		ldr	r3, [r3]
 5868              		.loc 1 3771 5 view .LVU1595
 5869 0004 33B1     		cbz	r3, .L454
 5870              		.loc 1 3777 4 is_stmt 1 view .LVU1596
 5871              		.loc 1 3777 29 is_stmt 0 view .LVU1597
 5872 0006 054B     		ldr	r3, .L457+4
 5873 0008 1B68     		ldr	r3, [r3]
 5874              		.loc 1 3777 6 view .LVU1598
 5875 000a 0BB1     		cbz	r3, .L456
 5876              		.loc 1 3783 13 view .LVU1599
 5877 000c 0020     		movs	r0, #0
 5878              	.LVL420:
 5879              		.loc 1 3787 3 is_stmt 1 view .LVU1600
 5880              		.loc 1 3788 2 is_stmt 0 view .LVU1601
 5881 000e 7047     		bx	lr
 5882              	.LVL421:
 5883              	.L456:
 5884              		.loc 1 3779 13 view .LVU1602
 5885 0010 0220     		movs	r0, #2
 5886 0012 7047     		bx	lr
 5887              	.L454:
 5888              		.loc 1 3773 12 view .LVU1603
 5889 0014 0120     		movs	r0, #1
 5890 0016 7047     		bx	lr
 5891              	.L458:
 5892              		.align	2
 5893              	.L457:
 5894 0018 00000000 		.word	.LANCHOR11
 5895 001c 00000000 		.word	.LANCHOR16
 5896              		.cfi_endproc
 5897              	.LFE51:
 5899              		.section	.text.xTaskPriorityInherit,"ax",%progbits
 5900              		.align	1
 5901              		.global	xTaskPriorityInherit
 5902              		.syntax unified
 5903              		.thumb
 5904              		.thumb_func
 5905              		.fpu softvfp
 5907              	xTaskPriorityInherit:
 5908              	.LVL422:
 5909              	.LFB52:
 5910              		.loc 1 3796 2 is_stmt 1 view -0
