ARM GAS  C:\Users\Test\AppData\Local\Temp\ccu5IEwJ.s 			page 1


   1              		.cpu cortex-m3
   2              		.eabi_attribute 20, 1
   3              		.eabi_attribute 21, 1
   4              		.eabi_attribute 23, 3
   5              		.eabi_attribute 24, 1
   6              		.eabi_attribute 25, 1
   7              		.eabi_attribute 26, 1
   8              		.eabi_attribute 30, 1
   9              		.eabi_attribute 34, 1
  10              		.eabi_attribute 18, 4
  11              		.file	"timers.c"
  12              		.text
  13              	.Ltext0:
  14              		.cfi_sections	.debug_frame
  15              		.section	.text.prvGetNextExpireTime,"ax",%progbits
  16              		.align	1
  17              		.arch armv7-m
  18              		.syntax unified
  19              		.thumb
  20              		.thumb_func
  21              		.fpu softvfp
  23              	prvGetNextExpireTime:
  24              	.LVL0:
  25              	.LFB16:
  26              		.file 1 "../Middlewares/Third_Party/FreeRTOS/Source/timers.c"
   1:../Middlewares/Third_Party/FreeRTOS/Source/timers.c **** 
  27              		.loc 1 599 1 view -0
  28              		.cfi_startproc
  29              		@ args = 0, pretend = 0, frame = 0
  30              		@ frame_needed = 0, uses_anonymous_args = 0
  31              		@ link register save eliminated.
  32              		.loc 1 600 1 view .LVU1
  33              		.loc 1 609 2 view .LVU2
  34              		.loc 1 609 20 is_stmt 0 view .LVU3
  35 0000 064B     		ldr	r3, .L4
  36 0002 1A68     		ldr	r2, [r3]
  37 0004 1368     		ldr	r3, [r2]
  38 0006 B3FA83F3 		clz	r3, r3
  39 000a 5B09     		lsrs	r3, r3, #5
  40              		.loc 1 609 18 view .LVU4
  41 000c 0360     		str	r3, [r0]
  42              		.loc 1 610 2 is_stmt 1 view .LVU5
  43              		.loc 1 610 4 is_stmt 0 view .LVU6
  44 000e 13B9     		cbnz	r3, .L3
  45              		.loc 1 612 3 is_stmt 1 view .LVU7
  46              		.loc 1 612 21 is_stmt 0 view .LVU8
  47 0010 D368     		ldr	r3, [r2, #12]
  48              		.loc 1 612 19 view .LVU9
  49 0012 1868     		ldr	r0, [r3]
  50              	.LVL1:
  51              		.loc 1 612 19 view .LVU10
  52 0014 7047     		bx	lr
  53              	.LVL2:
  54              	.L3:
  55              		.loc 1 617 19 view .LVU11
  56 0016 0020     		movs	r0, #0
  57              	.LVL3:
ARM GAS  C:\Users\Test\AppData\Local\Temp\ccu5IEwJ.s 			page 2


  58              		.loc 1 620 2 is_stmt 1 view .LVU12
  59              		.loc 1 621 1 is_stmt 0 view .LVU13
  60 0018 7047     		bx	lr
  61              	.L5:
  62 001a 00BF     		.align	2
  63              	.L4:
  64 001c 00000000 		.word	.LANCHOR0
  65              		.cfi_endproc
  66              	.LFE16:
  68              		.section	.text.prvInsertTimerInActiveList,"ax",%progbits
  69              		.align	1
  70              		.syntax unified
  71              		.thumb
  72              		.thumb_func
  73              		.fpu softvfp
  75              	prvInsertTimerInActiveList:
  76              	.LVL4:
  77              	.LFB18:
  78              		.loc 1 648 1 is_stmt 1 view -0
  79              		.cfi_startproc
  80              		@ args = 0, pretend = 0, frame = 0
  81              		@ frame_needed = 0, uses_anonymous_args = 0
  82              		.loc 1 648 1 is_stmt 0 view .LVU15
  83 0000 08B5     		push	{r3, lr}
  84              	.LCFI0:
  85              		.cfi_def_cfa_offset 8
  86              		.cfi_offset 3, -8
  87              		.cfi_offset 14, -4
  88              		.loc 1 649 1 is_stmt 1 view .LVU16
  89              	.LVL5:
  90              		.loc 1 651 2 view .LVU17
  91 0002 4160     		str	r1, [r0, #4]
  92              		.loc 1 652 2 view .LVU18
  93 0004 0061     		str	r0, [r0, #16]
  94              		.loc 1 654 2 view .LVU19
  95              		.loc 1 654 4 is_stmt 0 view .LVU20
  96 0006 9142     		cmp	r1, r2
  97 0008 0CD8     		bhi	.L7
  98              		.loc 1 658 3 is_stmt 1 view .LVU21
  99              		.loc 1 658 9 is_stmt 0 view .LVU22
 100 000a D21A     		subs	r2, r2, r3
 101              	.LVL6:
 102              		.loc 1 658 64 view .LVU23
 103 000c 8369     		ldr	r3, [r0, #24]
 104              	.LVL7:
 105              		.loc 1 658 5 view .LVU24
 106 000e 9A42     		cmp	r2, r3
 107 0010 01D3     		bcc	.L13
 108              		.loc 1 662 21 view .LVU25
 109 0012 0120     		movs	r0, #1
 110              	.LVL8:
 111              	.L6:
 112              		.loc 1 685 1 view .LVU26
 113 0014 08BD     		pop	{r3, pc}
 114              	.LVL9:
 115              	.L13:
 116              		.loc 1 666 4 is_stmt 1 view .LVU27
ARM GAS  C:\Users\Test\AppData\Local\Temp\ccu5IEwJ.s 			page 3


 117 0016 011D     		adds	r1, r0, #4
 118              	.LVL10:
 119              		.loc 1 666 4 is_stmt 0 view .LVU28
 120 0018 094B     		ldr	r3, .L14
 121 001a 1868     		ldr	r0, [r3]
 122              	.LVL11:
 123              		.loc 1 666 4 view .LVU29
 124 001c 094B     		ldr	r3, .L14+4
 125 001e 9847     		blx	r3
 126              	.LVL12:
 127              		.loc 1 649 12 view .LVU30
 128 0020 0020     		movs	r0, #0
 129 0022 F7E7     		b	.L6
 130              	.LVL13:
 131              	.L7:
 132              		.loc 1 671 3 is_stmt 1 view .LVU31
 133              		.loc 1 671 5 is_stmt 0 view .LVU32
 134 0024 9A42     		cmp	r2, r3
 135 0026 01D2     		bcs	.L9
 136              		.loc 1 671 35 discriminator 1 view .LVU33
 137 0028 9942     		cmp	r1, r3
 138 002a 06D2     		bcs	.L11
 139              	.L9:
 140              		.loc 1 680 4 is_stmt 1 view .LVU34
 141 002c 011D     		adds	r1, r0, #4
 142              	.LVL14:
 143              		.loc 1 680 4 is_stmt 0 view .LVU35
 144 002e 064B     		ldr	r3, .L14+8
 145              	.LVL15:
 146              		.loc 1 680 4 view .LVU36
 147 0030 1868     		ldr	r0, [r3]
 148              	.LVL16:
 149              		.loc 1 680 4 view .LVU37
 150 0032 044B     		ldr	r3, .L14+4
 151 0034 9847     		blx	r3
 152              	.LVL17:
 153              		.loc 1 649 12 view .LVU38
 154 0036 0020     		movs	r0, #0
 155 0038 ECE7     		b	.L6
 156              	.LVL18:
 157              	.L11:
 158              		.loc 1 676 21 view .LVU39
 159 003a 0120     		movs	r0, #1
 160              	.LVL19:
 161              		.loc 1 684 2 is_stmt 1 view .LVU40
 162              		.loc 1 684 9 is_stmt 0 view .LVU41
 163 003c EAE7     		b	.L6
 164              	.L15:
 165 003e 00BF     		.align	2
 166              	.L14:
 167 0040 00000000 		.word	.LANCHOR1
 168 0044 00000000 		.word	vListInsert
 169 0048 00000000 		.word	.LANCHOR0
 170              		.cfi_endproc
 171              	.LFE18:
 173              		.section	.rodata.prvCheckForValidListAndQueue.str1.4,"aMS",%progbits,1
 174              		.align	2
ARM GAS  C:\Users\Test\AppData\Local\Temp\ccu5IEwJ.s 			page 4


 175              	.LC0:
 176 0000 546D7251 		.ascii	"TmrQ\000"
 176      00
 177              		.section	.text.prvCheckForValidListAndQueue,"ax",%progbits
 178              		.align	1
 179              		.syntax unified
 180              		.thumb
 181              		.thumb_func
 182              		.fpu softvfp
 184              	prvCheckForValidListAndQueue:
 185              	.LFB21:
 186              		.loc 1 895 1 is_stmt 1 view -0
 187              		.cfi_startproc
 188              		@ args = 0, pretend = 0, frame = 0
 189              		@ frame_needed = 0, uses_anonymous_args = 0
 190 0000 70B5     		push	{r4, r5, r6, lr}
 191              	.LCFI1:
 192              		.cfi_def_cfa_offset 16
 193              		.cfi_offset 4, -16
 194              		.cfi_offset 5, -12
 195              		.cfi_offset 6, -8
 196              		.cfi_offset 14, -4
 197 0002 82B0     		sub	sp, sp, #8
 198              	.LCFI2:
 199              		.cfi_def_cfa_offset 24
 200              		.loc 1 899 2 view .LVU43
 201 0004 114B     		ldr	r3, .L20
 202 0006 9847     		blx	r3
 203              	.LVL20:
 204              		.loc 1 901 3 view .LVU44
 205              		.loc 1 901 19 is_stmt 0 view .LVU45
 206 0008 114B     		ldr	r3, .L20+4
 207 000a 1B68     		ldr	r3, [r3]
 208              		.loc 1 901 5 view .LVU46
 209 000c 1BB1     		cbz	r3, .L19
 210              	.L17:
 211              		.loc 1 938 28 is_stmt 1 view .LVU47
 212              		.loc 1 941 2 view .LVU48
 213 000e 114B     		ldr	r3, .L20+8
 214 0010 9847     		blx	r3
 215              	.LVL21:
 216              		.loc 1 942 1 is_stmt 0 view .LVU49
 217 0012 02B0     		add	sp, sp, #8
 218              	.LCFI3:
 219              		.cfi_remember_state
 220              		.cfi_def_cfa_offset 16
 221              		@ sp needed
 222 0014 70BD     		pop	{r4, r5, r6, pc}
 223              	.L19:
 224              	.LCFI4:
 225              		.cfi_restore_state
 226              		.loc 1 903 4 is_stmt 1 view .LVU50
 227 0016 104D     		ldr	r5, .L20+12
 228 0018 2846     		mov	r0, r5
 229 001a 104E     		ldr	r6, .L20+16
 230 001c B047     		blx	r6
 231              	.LVL22:
ARM GAS  C:\Users\Test\AppData\Local\Temp\ccu5IEwJ.s 			page 5


 232              		.loc 1 904 4 view .LVU51
 233 001e 104C     		ldr	r4, .L20+20
 234 0020 2046     		mov	r0, r4
 235 0022 B047     		blx	r6
 236              	.LVL23:
 237              		.loc 1 905 4 view .LVU52
 238              		.loc 1 905 23 is_stmt 0 view .LVU53
 239 0024 0F4B     		ldr	r3, .L20+24
 240 0026 1D60     		str	r5, [r3]
 241              		.loc 1 906 4 is_stmt 1 view .LVU54
 242              		.loc 1 906 24 is_stmt 0 view .LVU55
 243 0028 0F4B     		ldr	r3, .L20+28
 244 002a 1C60     		str	r4, [r3]
 245              	.LBB41:
 246              		.loc 1 912 5 is_stmt 1 view .LVU56
 247              		.loc 1 913 5 view .LVU57
 248              		.loc 1 915 5 view .LVU58
 249              		.loc 1 915 19 is_stmt 0 view .LVU59
 250 002c 0023     		movs	r3, #0
 251 002e 0093     		str	r3, [sp]
 252 0030 0E4B     		ldr	r3, .L20+32
 253 0032 0F4A     		ldr	r2, .L20+36
 254 0034 1021     		movs	r1, #16
 255 0036 0A20     		movs	r0, #10
 256 0038 0E4C     		ldr	r4, .L20+40
 257 003a A047     		blx	r4
 258              	.LVL24:
 259              		.loc 1 915 17 view .LVU60
 260 003c 044B     		ldr	r3, .L20+4
 261 003e 1860     		str	r0, [r3]
 262              	.LBE41:
 263              		.loc 1 925 5 is_stmt 1 view .LVU61
 264              		.loc 1 925 7 is_stmt 0 view .LVU62
 265 0040 0028     		cmp	r0, #0
 266 0042 E4D0     		beq	.L17
 267              		.loc 1 927 6 is_stmt 1 view .LVU63
 268 0044 0C49     		ldr	r1, .L20+44
 269 0046 0D4B     		ldr	r3, .L20+48
 270 0048 9847     		blx	r3
 271              	.LVL25:
 272 004a E0E7     		b	.L17
 273              	.L21:
 274              		.align	2
 275              	.L20:
 276 004c 00000000 		.word	vPortEnterCritical
 277 0050 00000000 		.word	.LANCHOR2
 278 0054 00000000 		.word	vPortExitCritical
 279 0058 00000000 		.word	.LANCHOR3
 280 005c 00000000 		.word	vListInitialise
 281 0060 00000000 		.word	.LANCHOR4
 282 0064 00000000 		.word	.LANCHOR0
 283 0068 00000000 		.word	.LANCHOR1
 284 006c 00000000 		.word	.LANCHOR5
 285 0070 00000000 		.word	.LANCHOR6
 286 0074 00000000 		.word	xQueueGenericCreateStatic
 287 0078 00000000 		.word	.LC0
 288 007c 00000000 		.word	vQueueAddToRegistry
ARM GAS  C:\Users\Test\AppData\Local\Temp\ccu5IEwJ.s 			page 6


 289              		.cfi_endproc
 290              	.LFE21:
 292              		.section	.text.prvInitialiseNewTimer,"ax",%progbits
 293              		.align	1
 294              		.syntax unified
 295              		.thumb
 296              		.thumb_func
 297              		.fpu softvfp
 299              	prvInitialiseNewTimer:
 300              	.LVL26:
 301              	.LFB7:
 302              		.loc 1 358 1 view -0
 303              		.cfi_startproc
 304              		@ args = 8, pretend = 0, frame = 0
 305              		@ frame_needed = 0, uses_anonymous_args = 0
 306              		.loc 1 358 1 is_stmt 0 view .LVU65
 307 0000 2DE9F041 		push	{r4, r5, r6, r7, r8, lr}
 308              	.LCFI5:
 309              		.cfi_def_cfa_offset 24
 310              		.cfi_offset 4, -24
 311              		.cfi_offset 5, -20
 312              		.cfi_offset 6, -16
 313              		.cfi_offset 7, -12
 314              		.cfi_offset 8, -8
 315              		.cfi_offset 14, -4
 316 0004 079E     		ldr	r6, [sp, #28]
 317              		.loc 1 360 2 is_stmt 1 view .LVU66
 318 0006 41B9     		cbnz	r1, .L23
 319              		.loc 1 360 2 view .LVU67
 320              	.LBB42:
 321              	.LBI42:
 322              		.file 2 "../Middlewares/Third_Party/FreeRTOS/Source/portable/GCC/ARM_CM3/portmacro.h"
   1:../Middlewares/Third_Party/FreeRTOS/Source/portable/GCC/ARM_CM3/portmacro.h **** 
 323              		.loc 2 191 30 view .LVU68
 324              	.LBB43:
 325              		.loc 2 193 1 view .LVU69
 326              		.loc 2 195 2 view .LVU70
 327              		.syntax unified
 328              	@ 195 "Middlewares/Third_Party/FreeRTOS/Source/portable/GCC/ARM_CM3/portmacro.h" 1
 329 0008 4FF05003 			mov r3, #80												
 330 000c 83F31188 		msr basepri, r3											
 331 0010 BFF36F8F 		isb														
 332 0014 BFF34F8F 		dsb														
 333              	
 334              	@ 0 "" 2
 335              	.LVL27:
 336              		.thumb
 337              		.syntax unified
 338              	.L24:
 339              		.loc 2 195 2 is_stmt 0 view .LVU71
 340              	.LBE43:
 341              	.LBE42:
 342              		.loc 1 360 2 is_stmt 1 discriminator 1 view .LVU72
 343              		.loc 1 360 2 discriminator 1 view .LVU73
 344              		.loc 1 360 2 discriminator 1 view .LVU74
 345 0018 FEE7     		b	.L24
 346              	.LVL28:
ARM GAS  C:\Users\Test\AppData\Local\Temp\ccu5IEwJ.s 			page 7


 347              	.L23:
 348              		.loc 1 360 2 is_stmt 0 discriminator 1 view .LVU75
 349 001a 0746     		mov	r7, r0
 350 001c 1546     		mov	r5, r2
 351 001e 1C46     		mov	r4, r3
 352 0020 8846     		mov	r8, r1
 353              		.loc 1 360 45 is_stmt 1 discriminator 2 view .LVU76
 354              		.loc 1 362 2 discriminator 2 view .LVU77
 355              		.loc 1 362 4 is_stmt 0 discriminator 2 view .LVU78
 356 0022 5EB1     		cbz	r6, .L22
 357              		.loc 1 366 3 is_stmt 1 view .LVU79
 358 0024 064B     		ldr	r3, .L27
 359              	.LVL29:
 360              		.loc 1 366 3 is_stmt 0 view .LVU80
 361 0026 9847     		blx	r3
 362              	.LVL30:
 363              		.loc 1 370 3 is_stmt 1 view .LVU81
 364              		.loc 1 370 27 is_stmt 0 view .LVU82
 365 0028 3760     		str	r7, [r6]
 366              		.loc 1 371 3 is_stmt 1 view .LVU83
 367              		.loc 1 371 35 is_stmt 0 view .LVU84
 368 002a C6F81880 		str	r8, [r6, #24]
 369              		.loc 1 372 3 is_stmt 1 view .LVU85
 370              		.loc 1 372 28 is_stmt 0 view .LVU86
 371 002e F561     		str	r5, [r6, #28]
 372              		.loc 1 373 3 is_stmt 1 view .LVU87
 373              		.loc 1 373 25 is_stmt 0 view .LVU88
 374 0030 3462     		str	r4, [r6, #32]
 375              		.loc 1 374 3 is_stmt 1 view .LVU89
 376              		.loc 1 374 34 is_stmt 0 view .LVU90
 377 0032 069B     		ldr	r3, [sp, #24]
 378 0034 7362     		str	r3, [r6, #36]
 379              		.loc 1 375 3 is_stmt 1 view .LVU91
 380 0036 301D     		adds	r0, r6, #4
 381 0038 024B     		ldr	r3, .L27+4
 382 003a 9847     		blx	r3
 383              	.LVL31:
 384              		.loc 1 376 34 view .LVU92
 385              	.L22:
 386              		.loc 1 378 1 is_stmt 0 view .LVU93
 387 003c BDE8F081 		pop	{r4, r5, r6, r7, r8, pc}
 388              	.LVL32:
 389              	.L28:
 390              		.loc 1 378 1 view .LVU94
 391              		.align	2
 392              	.L27:
 393 0040 00000000 		.word	prvCheckForValidListAndQueue
 394 0044 00000000 		.word	vListInitialiseItem
 395              		.cfi_endproc
 396              	.LFE7:
 398              		.section	.rodata.xTimerCreateTimerTask.str1.4,"aMS",%progbits,1
 399              		.align	2
 400              	.LC1:
 401 0000 546D7220 		.ascii	"Tmr Svc\000"
 401      53766300 
 402              		.section	.text.xTimerCreateTimerTask,"ax",%progbits
 403              		.align	1
ARM GAS  C:\Users\Test\AppData\Local\Temp\ccu5IEwJ.s 			page 8


 404              		.global	xTimerCreateTimerTask
 405              		.syntax unified
 406              		.thumb
 407              		.thumb_func
 408              		.fpu softvfp
 410              	xTimerCreateTimerTask:
 411              	.LFB4:
 412              		.loc 1 224 1 is_stmt 1 view -0
 413              		.cfi_startproc
 414              		@ args = 0, pretend = 0, frame = 16
 415              		@ frame_needed = 0, uses_anonymous_args = 0
 416 0000 10B5     		push	{r4, lr}
 417              	.LCFI6:
 418              		.cfi_def_cfa_offset 8
 419              		.cfi_offset 4, -8
 420              		.cfi_offset 14, -4
 421 0002 88B0     		sub	sp, sp, #32
 422              	.LCFI7:
 423              		.cfi_def_cfa_offset 40
 424              		.loc 1 225 1 view .LVU96
 425              	.LVL33:
 426              		.loc 1 231 2 view .LVU97
 427 0004 134B     		ldr	r3, .L35
 428 0006 9847     		blx	r3
 429              	.LVL34:
 430              		.loc 1 233 2 view .LVU98
 431              		.loc 1 233 18 is_stmt 0 view .LVU99
 432 0008 134B     		ldr	r3, .L35+4
 433 000a 1B68     		ldr	r3, [r3]
 434              		.loc 1 233 4 view .LVU100
 435 000c CBB1     		cbz	r3, .L30
 436              	.LBB44:
 437              		.loc 1 237 4 is_stmt 1 view .LVU101
 438              		.loc 1 237 18 is_stmt 0 view .LVU102
 439 000e 0024     		movs	r4, #0
 440 0010 0594     		str	r4, [sp, #20]
 441              		.loc 1 238 4 is_stmt 1 view .LVU103
 442              		.loc 1 238 17 is_stmt 0 view .LVU104
 443 0012 0694     		str	r4, [sp, #24]
 444              		.loc 1 239 4 is_stmt 1 view .LVU105
 445              		.loc 1 241 4 view .LVU106
 446 0014 07AA     		add	r2, sp, #28
 447 0016 06A9     		add	r1, sp, #24
 448 0018 05A8     		add	r0, sp, #20
 449 001a 104B     		ldr	r3, .L35+8
 450 001c 9847     		blx	r3
 451              	.LVL35:
 452              		.loc 1 242 4 view .LVU107
 453              		.loc 1 242 23 is_stmt 0 view .LVU108
 454 001e 059B     		ldr	r3, [sp, #20]
 455 0020 0293     		str	r3, [sp, #8]
 456 0022 069B     		ldr	r3, [sp, #24]
 457 0024 0193     		str	r3, [sp, #4]
 458 0026 0223     		movs	r3, #2
 459 0028 0093     		str	r3, [sp]
 460 002a 2346     		mov	r3, r4
 461 002c 079A     		ldr	r2, [sp, #28]
ARM GAS  C:\Users\Test\AppData\Local\Temp\ccu5IEwJ.s 			page 9


 462 002e 0C49     		ldr	r1, .L35+12
 463 0030 0C48     		ldr	r0, .L35+16
 464 0032 0D4C     		ldr	r4, .L35+20
 465 0034 A047     		blx	r4
 466              	.LVL36:
 467              		.loc 1 242 21 view .LVU109
 468 0036 0D4B     		ldr	r3, .L35+24
 469 0038 1860     		str	r0, [r3]
 470              		.loc 1 250 4 is_stmt 1 view .LVU110
 471              		.loc 1 250 6 is_stmt 0 view .LVU111
 472 003a 10B1     		cbz	r0, .L30
 473              	.LBE44:
 474              		.loc 1 273 1 view .LVU112
 475 003c 0120     		movs	r0, #1
 476 003e 08B0     		add	sp, sp, #32
 477              	.LCFI8:
 478              		.cfi_remember_state
 479              		.cfi_def_cfa_offset 8
 480              		@ sp needed
 481 0040 10BD     		pop	{r4, pc}
 482              	.L30:
 483              	.LCFI9:
 484              		.cfi_restore_state
 485              	.LVL37:
 486              		.loc 1 271 2 is_stmt 1 view .LVU113
 487              	.LBB45:
 488              	.LBI45:
 489              		.loc 2 191 30 view .LVU114
 490              	.LBB46:
 491              		.loc 2 193 1 view .LVU115
 492              		.loc 2 195 2 view .LVU116
 493              		.syntax unified
 494              	@ 195 "Middlewares/Third_Party/FreeRTOS/Source/portable/GCC/ARM_CM3/portmacro.h" 1
 495 0042 4FF05003 			mov r3, #80												
 496 0046 83F31188 		msr basepri, r3											
 497 004a BFF36F8F 		isb														
 498 004e BFF34F8F 		dsb														
 499              	
 500              	@ 0 "" 2
 501              	.LVL38:
 502              		.thumb
 503              		.syntax unified
 504              	.L32:
 505              		.loc 2 195 2 is_stmt 0 view .LVU117
 506              	.LBE46:
 507              	.LBE45:
 508              		.loc 1 271 2 is_stmt 1 discriminator 1 view .LVU118
 509              		.loc 1 271 2 discriminator 1 view .LVU119
 510              		.loc 1 271 2 discriminator 1 view .LVU120
 511 0052 FEE7     		b	.L32
 512              	.L36:
 513              		.align	2
 514              	.L35:
 515 0054 00000000 		.word	prvCheckForValidListAndQueue
 516 0058 00000000 		.word	.LANCHOR2
 517 005c 00000000 		.word	vApplicationGetTimerTaskMemory
 518 0060 00000000 		.word	.LC1
ARM GAS  C:\Users\Test\AppData\Local\Temp\ccu5IEwJ.s 			page 10


 519 0064 00000000 		.word	prvTimerTask
 520 0068 00000000 		.word	xTaskCreateStatic
 521 006c 00000000 		.word	.LANCHOR7
 522              		.cfi_endproc
 523              	.LFE4:
 525              		.section	.text.xTimerCreate,"ax",%progbits
 526              		.align	1
 527              		.global	xTimerCreate
 528              		.syntax unified
 529              		.thumb
 530              		.thumb_func
 531              		.fpu softvfp
 533              	xTimerCreate:
 534              	.LVL39:
 535              	.LFB5:
 536              		.loc 1 283 2 view -0
 537              		.cfi_startproc
 538              		@ args = 4, pretend = 0, frame = 0
 539              		@ frame_needed = 0, uses_anonymous_args = 0
 540              		.loc 1 283 2 is_stmt 0 view .LVU122
 541 0000 2DE9F041 		push	{r4, r5, r6, r7, r8, lr}
 542              	.LCFI10:
 543              		.cfi_def_cfa_offset 24
 544              		.cfi_offset 4, -24
 545              		.cfi_offset 5, -20
 546              		.cfi_offset 6, -16
 547              		.cfi_offset 7, -12
 548              		.cfi_offset 8, -8
 549              		.cfi_offset 14, -4
 550 0004 82B0     		sub	sp, sp, #8
 551              	.LCFI11:
 552              		.cfi_def_cfa_offset 32
 553 0006 0446     		mov	r4, r0
 554 0008 0D46     		mov	r5, r1
 555 000a 9046     		mov	r8, r2
 556 000c 1E46     		mov	r6, r3
 557              		.loc 1 284 2 is_stmt 1 view .LVU123
 558              		.loc 1 286 3 view .LVU124
 559              		.loc 1 286 30 is_stmt 0 view .LVU125
 560 000e 3020     		movs	r0, #48
 561              	.LVL40:
 562              		.loc 1 286 30 view .LVU126
 563 0010 094B     		ldr	r3, .L40
 564              	.LVL41:
 565              		.loc 1 286 30 view .LVU127
 566 0012 9847     		blx	r3
 567              	.LVL42:
 568              		.loc 1 288 3 is_stmt 1 view .LVU128
 569              		.loc 1 288 5 is_stmt 0 view .LVU129
 570 0014 0746     		mov	r7, r0
 571 0016 58B1     		cbz	r0, .L37
 572              		.loc 1 290 4 is_stmt 1 view .LVU130
 573 0018 0190     		str	r0, [sp, #4]
 574 001a 089B     		ldr	r3, [sp, #32]
 575 001c 0093     		str	r3, [sp]
 576 001e 3346     		mov	r3, r6
 577 0020 4246     		mov	r2, r8
ARM GAS  C:\Users\Test\AppData\Local\Temp\ccu5IEwJ.s 			page 11


 578 0022 2946     		mov	r1, r5
 579 0024 2046     		mov	r0, r4
 580              	.LVL43:
 581              		.loc 1 290 4 is_stmt 0 view .LVU131
 582 0026 054C     		ldr	r4, .L40+4
 583              	.LVL44:
 584              		.loc 1 290 4 view .LVU132
 585 0028 A047     		blx	r4
 586              	.LVL45:
 587              		.loc 1 297 5 is_stmt 1 view .LVU133
 588              		.loc 1 297 39 is_stmt 0 view .LVU134
 589 002a 0023     		movs	r3, #0
 590 002c 87F82C30 		strb	r3, [r7, #44]
 591              		.loc 1 302 3 is_stmt 1 view .LVU135
 592              	.L37:
 593              		.loc 1 303 2 is_stmt 0 view .LVU136
 594 0030 3846     		mov	r0, r7
 595 0032 02B0     		add	sp, sp, #8
 596              	.LCFI12:
 597              		.cfi_def_cfa_offset 24
 598              		@ sp needed
 599 0034 BDE8F081 		pop	{r4, r5, r6, r7, r8, pc}
 600              	.LVL46:
 601              	.L41:
 602              		.loc 1 303 2 view .LVU137
 603              		.align	2
 604              	.L40:
 605 0038 00000000 		.word	pvPortMalloc
 606 003c 00000000 		.word	prvInitialiseNewTimer
 607              		.cfi_endproc
 608              	.LFE5:
 610              		.section	.text.xTimerCreateStatic,"ax",%progbits
 611              		.align	1
 612              		.global	xTimerCreateStatic
 613              		.syntax unified
 614              		.thumb
 615              		.thumb_func
 616              		.fpu softvfp
 618              	xTimerCreateStatic:
 619              	.LVL47:
 620              	.LFB6:
 621              		.loc 1 316 2 is_stmt 1 view -0
 622              		.cfi_startproc
 623              		@ args = 8, pretend = 0, frame = 8
 624              		@ frame_needed = 0, uses_anonymous_args = 0
 625              		.loc 1 316 2 is_stmt 0 view .LVU139
 626 0000 10B5     		push	{r4, lr}
 627              	.LCFI13:
 628              		.cfi_def_cfa_offset 8
 629              		.cfi_offset 4, -8
 630              		.cfi_offset 14, -4
 631 0002 84B0     		sub	sp, sp, #16
 632              	.LCFI14:
 633              		.cfi_def_cfa_offset 24
 634              		.loc 1 317 2 is_stmt 1 view .LVU140
 635              	.LBB47:
 636              		.loc 1 324 4 view .LVU141
ARM GAS  C:\Users\Test\AppData\Local\Temp\ccu5IEwJ.s 			page 12


 637              		.loc 1 324 20 is_stmt 0 view .LVU142
 638 0004 3024     		movs	r4, #48
 639 0006 0394     		str	r4, [sp, #12]
 640              		.loc 1 325 4 is_stmt 1 view .LVU143
 641 0008 039C     		ldr	r4, [sp, #12]
 642 000a 302C     		cmp	r4, #48
 643 000c 08D0     		beq	.L43
 644              		.loc 1 325 4 view .LVU144
 645              	.LBB48:
 646              	.LBI48:
 647              		.loc 2 191 30 view .LVU145
 648              	.LBB49:
 649              		.loc 2 193 1 view .LVU146
 650              		.loc 2 195 2 view .LVU147
 651              		.syntax unified
 652              	@ 195 "Middlewares/Third_Party/FreeRTOS/Source/portable/GCC/ARM_CM3/portmacro.h" 1
 653 000e 4FF05003 			mov r3, #80												
 654 0012 83F31188 		msr basepri, r3											
 655 0016 BFF36F8F 		isb														
 656 001a BFF34F8F 		dsb														
 657              	
 658              	@ 0 "" 2
 659              	.LVL48:
 660              		.thumb
 661              		.syntax unified
 662              	.L44:
 663              		.loc 2 195 2 is_stmt 0 view .LVU148
 664              	.LBE49:
 665              	.LBE48:
 666              		.loc 1 325 4 is_stmt 1 discriminator 1 view .LVU149
 667              		.loc 1 325 4 discriminator 1 view .LVU150
 668              		.loc 1 325 4 discriminator 1 view .LVU151
 669 001e FEE7     		b	.L44
 670              	.LVL49:
 671              	.L43:
 672              		.loc 1 325 46 discriminator 2 view .LVU152
 673              	.LBE47:
 674              		.loc 1 330 3 discriminator 2 view .LVU153
 675 0020 079C     		ldr	r4, [sp, #28]
 676 0022 64B1     		cbz	r4, .L48
 677              		.loc 1 330 32 view .LVU154
 678              		.loc 1 331 3 view .LVU155
 679              	.LVL50:
 680              		.loc 1 333 3 view .LVU156
 681              		.loc 1 335 4 view .LVU157
 682 0024 079C     		ldr	r4, [sp, #28]
 683              		.loc 1 335 4 is_stmt 0 view .LVU158
 684 0026 0194     		str	r4, [sp, #4]
 685 0028 069C     		ldr	r4, [sp, #24]
 686              	.LVL51:
 687              		.loc 1 335 4 view .LVU159
 688 002a 0094     		str	r4, [sp]
 689 002c 084C     		ldr	r4, .L49
 690 002e A047     		blx	r4
 691              	.LVL52:
 692              		.loc 1 341 5 is_stmt 1 view .LVU160
 693              		.loc 1 341 39 is_stmt 0 view .LVU161
ARM GAS  C:\Users\Test\AppData\Local\Temp\ccu5IEwJ.s 			page 13


 694 0030 0123     		movs	r3, #1
 695 0032 079A     		ldr	r2, [sp, #28]
 696 0034 82F82C30 		strb	r3, [r2, #44]
 697              		.loc 1 346 3 is_stmt 1 view .LVU162
 698              		.loc 1 347 2 is_stmt 0 view .LVU163
 699 0038 1046     		mov	r0, r2
 700 003a 04B0     		add	sp, sp, #16
 701              	.LCFI15:
 702              		.cfi_remember_state
 703              		.cfi_def_cfa_offset 8
 704              		@ sp needed
 705 003c 10BD     		pop	{r4, pc}
 706              	.LVL53:
 707              	.L48:
 708              	.LCFI16:
 709              		.cfi_restore_state
 710              		.loc 1 330 3 is_stmt 1 view .LVU164
 711              	.LBB50:
 712              	.LBI50:
 713              		.loc 2 191 30 view .LVU165
 714              	.LBB51:
 715              		.loc 2 193 1 view .LVU166
 716              		.loc 2 195 2 view .LVU167
 717              		.syntax unified
 718              	@ 195 "Middlewares/Third_Party/FreeRTOS/Source/portable/GCC/ARM_CM3/portmacro.h" 1
 719 003e 4FF05003 			mov r3, #80												
 720 0042 83F31188 		msr basepri, r3											
 721 0046 BFF36F8F 		isb														
 722 004a BFF34F8F 		dsb														
 723              	
 724              	@ 0 "" 2
 725              	.LVL54:
 726              		.thumb
 727              		.syntax unified
 728              	.L46:
 729              		.loc 2 195 2 is_stmt 0 view .LVU168
 730              	.LBE51:
 731              	.LBE50:
 732              		.loc 1 330 3 is_stmt 1 discriminator 2 view .LVU169
 733              		.loc 1 330 3 discriminator 2 view .LVU170
 734              		.loc 1 330 3 discriminator 2 view .LVU171
 735 004e FEE7     		b	.L46
 736              	.L50:
 737              		.align	2
 738              	.L49:
 739 0050 00000000 		.word	prvInitialiseNewTimer
 740              		.cfi_endproc
 741              	.LFE6:
 743              		.section	.text.xTimerGenericCommand,"ax",%progbits
 744              		.align	1
 745              		.global	xTimerGenericCommand
 746              		.syntax unified
 747              		.thumb
 748              		.thumb_func
 749              		.fpu softvfp
 751              	xTimerGenericCommand:
 752              	.LVL55:
ARM GAS  C:\Users\Test\AppData\Local\Temp\ccu5IEwJ.s 			page 14


 753              	.LFB8:
 754              		.loc 1 382 1 view -0
 755              		.cfi_startproc
 756              		@ args = 4, pretend = 0, frame = 16
 757              		@ frame_needed = 0, uses_anonymous_args = 0
 758              		.loc 1 383 1 view .LVU173
 759              		.loc 1 384 1 view .LVU174
 760              		.loc 1 386 2 view .LVU175
 761 0000 B8B1     		cbz	r0, .L62
 762 0002 9C46     		mov	ip, r3
 763 0004 0346     		mov	r3, r0
 764              	.LVL56:
 765              		.loc 1 386 24 discriminator 2 view .LVU176
 766              		.loc 1 390 2 discriminator 2 view .LVU177
 767              		.loc 1 390 18 is_stmt 0 discriminator 2 view .LVU178
 768 0006 1848     		ldr	r0, .L64
 769              	.LVL57:
 770              		.loc 1 390 18 discriminator 2 view .LVU179
 771 0008 0068     		ldr	r0, [r0]
 772              		.loc 1 390 4 discriminator 2 view .LVU180
 773 000a 50B3     		cbz	r0, .L57
 774              		.loc 1 382 1 view .LVU181
 775 000c 10B5     		push	{r4, lr}
 776              	.LCFI17:
 777              		.cfi_def_cfa_offset 8
 778              		.cfi_offset 4, -8
 779              		.cfi_offset 14, -4
 780 000e 84B0     		sub	sp, sp, #16
 781              	.LCFI18:
 782              		.cfi_def_cfa_offset 24
 783              		.loc 1 393 3 is_stmt 1 view .LVU182
 784              		.loc 1 393 23 is_stmt 0 view .LVU183
 785 0010 0091     		str	r1, [sp]
 786              		.loc 1 394 3 is_stmt 1 view .LVU184
 787              		.loc 1 394 45 is_stmt 0 view .LVU185
 788 0012 0192     		str	r2, [sp, #4]
 789              		.loc 1 395 3 is_stmt 1 view .LVU186
 790              		.loc 1 395 39 is_stmt 0 view .LVU187
 791 0014 0293     		str	r3, [sp, #8]
 792              		.loc 1 397 3 is_stmt 1 view .LVU188
 793              		.loc 1 397 5 is_stmt 0 view .LVU189
 794 0016 0529     		cmp	r1, #5
 795 0018 1CDC     		bgt	.L55
 796              		.loc 1 399 4 is_stmt 1 view .LVU190
 797              		.loc 1 399 8 is_stmt 0 view .LVU191
 798 001a 144B     		ldr	r3, .L64+4
 799              	.LVL58:
 800              		.loc 1 399 8 view .LVU192
 801 001c 9847     		blx	r3
 802              	.LVL59:
 803              		.loc 1 399 6 view .LVU193
 804 001e 0228     		cmp	r0, #2
 805 0020 10D0     		beq	.L63
 806              		.loc 1 405 5 is_stmt 1 view .LVU194
 807              		.loc 1 405 15 is_stmt 0 view .LVU195
 808 0022 0023     		movs	r3, #0
 809 0024 1A46     		mov	r2, r3
ARM GAS  C:\Users\Test\AppData\Local\Temp\ccu5IEwJ.s 			page 15


 810 0026 6946     		mov	r1, sp
 811 0028 0F48     		ldr	r0, .L64
 812 002a 0068     		ldr	r0, [r0]
 813 002c 104C     		ldr	r4, .L64+8
 814 002e A047     		blx	r4
 815              	.LVL60:
 816              		.loc 1 405 15 view .LVU196
 817 0030 15E0     		b	.L51
 818              	.LVL61:
 819              	.L62:
 820              	.LCFI19:
 821              		.cfi_def_cfa_offset 0
 822              		.cfi_restore 4
 823              		.cfi_restore 14
 824              		.loc 1 386 2 is_stmt 1 view .LVU197
 825              	.LBB52:
 826              	.LBI52:
 827              		.loc 2 191 30 view .LVU198
 828              	.LBB53:
 829              		.loc 2 193 1 view .LVU199
 830              		.loc 2 195 2 view .LVU200
 831              		.syntax unified
 832              	@ 195 "Middlewares/Third_Party/FreeRTOS/Source/portable/GCC/ARM_CM3/portmacro.h" 1
 833 0032 4FF05003 			mov r3, #80												
 834 0036 83F31188 		msr basepri, r3											
 835 003a BFF36F8F 		isb														
 836 003e BFF34F8F 		dsb														
 837              	
 838              	@ 0 "" 2
 839              	.LVL62:
 840              		.thumb
 841              		.syntax unified
 842              	.L53:
 843              		.loc 2 195 2 is_stmt 0 view .LVU201
 844              	.LBE53:
 845              	.LBE52:
 846              		.loc 1 386 2 is_stmt 1 discriminator 1 view .LVU202
 847              		.loc 1 386 2 discriminator 1 view .LVU203
 848              		.loc 1 386 2 discriminator 1 view .LVU204
 849 0042 FEE7     		b	.L53
 850              	.LVL63:
 851              	.L63:
 852              	.LCFI20:
 853              		.cfi_def_cfa_offset 24
 854              		.cfi_offset 4, -8
 855              		.cfi_offset 14, -4
 856              		.loc 1 401 5 view .LVU205
 857              		.loc 1 401 15 is_stmt 0 view .LVU206
 858 0044 0023     		movs	r3, #0
 859 0046 069A     		ldr	r2, [sp, #24]
 860 0048 6946     		mov	r1, sp
 861 004a 0748     		ldr	r0, .L64
 862 004c 0068     		ldr	r0, [r0]
 863 004e 084C     		ldr	r4, .L64+8
 864 0050 A047     		blx	r4
 865              	.LVL64:
 866              		.loc 1 401 15 view .LVU207
ARM GAS  C:\Users\Test\AppData\Local\Temp\ccu5IEwJ.s 			page 16


 867 0052 04E0     		b	.L51
 868              	.LVL65:
 869              	.L55:
 870              		.loc 1 410 4 is_stmt 1 view .LVU208
 871              		.loc 1 410 14 is_stmt 0 view .LVU209
 872 0054 0023     		movs	r3, #0
 873              	.LVL66:
 874              		.loc 1 410 14 view .LVU210
 875 0056 6246     		mov	r2, ip
 876              	.LVL67:
 877              		.loc 1 410 14 view .LVU211
 878 0058 6946     		mov	r1, sp
 879              	.LVL68:
 880              		.loc 1 410 14 view .LVU212
 881 005a 064C     		ldr	r4, .L64+12
 882 005c A047     		blx	r4
 883              	.LVL69:
 884              	.L51:
 885              		.loc 1 421 1 view .LVU213
 886 005e 04B0     		add	sp, sp, #16
 887              	.LCFI21:
 888              		.cfi_def_cfa_offset 8
 889              		@ sp needed
 890 0060 10BD     		pop	{r4, pc}
 891              	.LVL70:
 892              	.L57:
 893              	.LCFI22:
 894              		.cfi_def_cfa_offset 0
 895              		.cfi_restore 4
 896              		.cfi_restore 14
 897              		.loc 1 383 12 view .LVU214
 898 0062 0020     		movs	r0, #0
 899              		.loc 1 417 27 is_stmt 1 view .LVU215
 900              		.loc 1 420 2 view .LVU216
 901              		.loc 1 421 1 is_stmt 0 view .LVU217
 902 0064 7047     		bx	lr
 903              	.L65:
 904 0066 00BF     		.align	2
 905              	.L64:
 906 0068 00000000 		.word	.LANCHOR2
 907 006c 00000000 		.word	xTaskGetSchedulerState
 908 0070 00000000 		.word	xQueueGenericSend
 909 0074 00000000 		.word	xQueueGenericSendFromISR
 910              		.cfi_endproc
 911              	.LFE8:
 913              		.section	.text.prvSwitchTimerLists,"ax",%progbits
 914              		.align	1
 915              		.syntax unified
 916              		.thumb
 917              		.thumb_func
 918              		.fpu softvfp
 920              	prvSwitchTimerLists:
 921              	.LFB20:
 922              		.loc 1 836 1 is_stmt 1 view -0
 923              		.cfi_startproc
 924              		@ args = 0, pretend = 0, frame = 0
 925              		@ frame_needed = 0, uses_anonymous_args = 0
ARM GAS  C:\Users\Test\AppData\Local\Temp\ccu5IEwJ.s 			page 17


 926 0000 70B5     		push	{r4, r5, r6, lr}
 927              	.LCFI23:
 928              		.cfi_def_cfa_offset 16
 929              		.cfi_offset 4, -16
 930              		.cfi_offset 5, -12
 931              		.cfi_offset 6, -8
 932              		.cfi_offset 14, -4
 933 0002 82B0     		sub	sp, sp, #8
 934              	.LCFI24:
 935              		.cfi_def_cfa_offset 24
 936              		.loc 1 837 1 view .LVU219
 937              		.loc 1 838 1 view .LVU220
 938              		.loc 1 839 1 view .LVU221
 939              		.loc 1 840 1 view .LVU222
 940              		.loc 1 846 2 view .LVU223
 941              	.L68:
 942              		.loc 1 884 28 view .LVU224
 943              		.loc 1 846 7 view .LVU225
 944              		.loc 1 846 9 is_stmt 0 view .LVU226
 945 0004 1B4B     		ldr	r3, .L75
 946 0006 1B68     		ldr	r3, [r3]
 947 0008 1A68     		ldr	r2, [r3]
 948              		.loc 1 846 7 view .LVU227
 949 000a 002A     		cmp	r2, #0
 950 000c 2AD0     		beq	.L74
 951              		.loc 1 848 3 is_stmt 1 view .LVU228
 952              		.loc 1 848 21 is_stmt 0 view .LVU229
 953 000e DB68     		ldr	r3, [r3, #12]
 954              		.loc 1 848 19 view .LVU230
 955 0010 1E68     		ldr	r6, [r3]
 956              	.LVL71:
 957              		.loc 1 851 3 is_stmt 1 view .LVU231
 958              		.loc 1 851 11 is_stmt 0 view .LVU232
 959 0012 DC68     		ldr	r4, [r3, #12]
 960              	.LVL72:
 961              		.loc 1 852 3 is_stmt 1 view .LVU233
 962              		.loc 1 852 12 is_stmt 0 view .LVU234
 963 0014 251D     		adds	r5, r4, #4
 964 0016 2846     		mov	r0, r5
 965 0018 174B     		ldr	r3, .L75+4
 966 001a 9847     		blx	r3
 967              	.LVL73:
 968              		.loc 1 853 32 is_stmt 1 view .LVU235
 969              		.loc 1 858 3 view .LVU236
 970              		.loc 1 858 10 is_stmt 0 view .LVU237
 971 001c 636A     		ldr	r3, [r4, #36]
 972              		.loc 1 858 3 view .LVU238
 973 001e 2046     		mov	r0, r4
 974 0020 9847     		blx	r3
 975              	.LVL74:
 976              		.loc 1 860 3 is_stmt 1 view .LVU239
 977              		.loc 1 860 14 is_stmt 0 view .LVU240
 978 0022 E369     		ldr	r3, [r4, #28]
 979              		.loc 1 860 5 view .LVU241
 980 0024 012B     		cmp	r3, #1
 981 0026 EDD1     		bne	.L68
 982              		.loc 1 868 4 is_stmt 1 view .LVU242
ARM GAS  C:\Users\Test\AppData\Local\Temp\ccu5IEwJ.s 			page 18


 983              		.loc 1 868 45 is_stmt 0 view .LVU243
 984 0028 A369     		ldr	r3, [r4, #24]
 985              		.loc 1 868 16 view .LVU244
 986 002a 3344     		add	r3, r3, r6
 987              	.LVL75:
 988              		.loc 1 869 4 is_stmt 1 view .LVU245
 989              		.loc 1 869 6 is_stmt 0 view .LVU246
 990 002c 9E42     		cmp	r6, r3
 991 002e 07D2     		bcs	.L69
 992              		.loc 1 871 5 is_stmt 1 view .LVU247
 993 0030 6360     		str	r3, [r4, #4]
 994              		.loc 1 872 5 view .LVU248
 995 0032 2461     		str	r4, [r4, #16]
 996              		.loc 1 873 5 view .LVU249
 997 0034 2946     		mov	r1, r5
 998 0036 0F4B     		ldr	r3, .L75
 999              	.LVL76:
 1000              		.loc 1 873 5 is_stmt 0 view .LVU250
 1001 0038 1868     		ldr	r0, [r3]
 1002 003a 104B     		ldr	r3, .L75+8
 1003 003c 9847     		blx	r3
 1004              	.LVL77:
 1005              		.loc 1 873 5 view .LVU251
 1006 003e E1E7     		b	.L68
 1007              	.LVL78:
 1008              	.L69:
 1009              		.loc 1 877 5 is_stmt 1 view .LVU252
 1010              		.loc 1 877 15 is_stmt 0 view .LVU253
 1011 0040 0021     		movs	r1, #0
 1012 0042 0091     		str	r1, [sp]
 1013 0044 0B46     		mov	r3, r1
 1014              	.LVL79:
 1015              		.loc 1 877 15 view .LVU254
 1016 0046 3246     		mov	r2, r6
 1017 0048 2046     		mov	r0, r4
 1018 004a 0D4C     		ldr	r4, .L75+12
 1019              	.LVL80:
 1020              		.loc 1 877 15 view .LVU255
 1021 004c A047     		blx	r4
 1022              	.LVL81:
 1023              		.loc 1 878 5 is_stmt 1 view .LVU256
 1024 004e 0028     		cmp	r0, #0
 1025 0050 D8D1     		bne	.L68
 1026              		.loc 1 878 5 view .LVU257
 1027              	.LBB54:
 1028              	.LBI54:
 1029              		.loc 2 191 30 view .LVU258
 1030              	.LBB55:
 1031              		.loc 2 193 1 view .LVU259
 1032              		.loc 2 195 2 view .LVU260
 1033              		.syntax unified
 1034              	@ 195 "Middlewares/Third_Party/FreeRTOS/Source/portable/GCC/ARM_CM3/portmacro.h" 1
 1035 0052 4FF05003 			mov r3, #80												
 1036 0056 83F31188 		msr basepri, r3											
 1037 005a BFF36F8F 		isb														
 1038 005e BFF34F8F 		dsb														
 1039              	
ARM GAS  C:\Users\Test\AppData\Local\Temp\ccu5IEwJ.s 			page 19


 1040              	@ 0 "" 2
 1041              	.LVL82:
 1042              		.thumb
 1043              		.syntax unified
 1044              	.L71:
 1045              		.loc 2 195 2 is_stmt 0 view .LVU261
 1046              	.LBE55:
 1047              	.LBE54:
 1048              		.loc 1 878 5 is_stmt 1 discriminator 1 view .LVU262
 1049              		.loc 1 878 5 discriminator 1 view .LVU263
 1050              		.loc 1 878 5 discriminator 1 view .LVU264
 1051 0062 FEE7     		b	.L71
 1052              	.LVL83:
 1053              	.L74:
 1054              		.loc 1 888 2 view .LVU265
 1055              		.loc 1 889 2 view .LVU266
 1056              		.loc 1 889 21 is_stmt 0 view .LVU267
 1057 0064 074A     		ldr	r2, .L75+16
 1058 0066 1068     		ldr	r0, [r2]
 1059 0068 0249     		ldr	r1, .L75
 1060 006a 0860     		str	r0, [r1]
 1061              		.loc 1 890 2 is_stmt 1 view .LVU268
 1062              		.loc 1 890 22 is_stmt 0 view .LVU269
 1063 006c 1360     		str	r3, [r2]
 1064              		.loc 1 891 1 view .LVU270
 1065 006e 02B0     		add	sp, sp, #8
 1066              	.LCFI25:
 1067              		.cfi_def_cfa_offset 16
 1068              		@ sp needed
 1069 0070 70BD     		pop	{r4, r5, r6, pc}
 1070              	.L76:
 1071 0072 00BF     		.align	2
 1072              	.L75:
 1073 0074 00000000 		.word	.LANCHOR0
 1074 0078 00000000 		.word	uxListRemove
 1075 007c 00000000 		.word	vListInsert
 1076 0080 00000000 		.word	xTimerGenericCommand
 1077 0084 00000000 		.word	.LANCHOR1
 1078              		.cfi_endproc
 1079              	.LFE20:
 1081              		.section	.text.prvSampleTimeNow,"ax",%progbits
 1082              		.align	1
 1083              		.syntax unified
 1084              		.thumb
 1085              		.thumb_func
 1086              		.fpu softvfp
 1088              	prvSampleTimeNow:
 1089              	.LVL84:
 1090              	.LFB17:
 1091              		.loc 1 625 1 is_stmt 1 view -0
 1092              		.cfi_startproc
 1093              		@ args = 0, pretend = 0, frame = 0
 1094              		@ frame_needed = 0, uses_anonymous_args = 0
 1095              		.loc 1 625 1 is_stmt 0 view .LVU272
 1096 0000 38B5     		push	{r3, r4, r5, lr}
 1097              	.LCFI26:
 1098              		.cfi_def_cfa_offset 16
ARM GAS  C:\Users\Test\AppData\Local\Temp\ccu5IEwJ.s 			page 20


 1099              		.cfi_offset 3, -16
 1100              		.cfi_offset 4, -12
 1101              		.cfi_offset 5, -8
 1102              		.cfi_offset 14, -4
 1103 0002 0546     		mov	r5, r0
 1104              		.loc 1 626 1 is_stmt 1 view .LVU273
 1105              		.loc 1 627 17 view .LVU274
 1106              		.loc 1 629 2 view .LVU275
 1107              		.loc 1 629 13 is_stmt 0 view .LVU276
 1108 0004 084B     		ldr	r3, .L82
 1109 0006 9847     		blx	r3
 1110              	.LVL85:
 1111              		.loc 1 629 13 view .LVU277
 1112 0008 0446     		mov	r4, r0
 1113              	.LVL86:
 1114              		.loc 1 631 2 is_stmt 1 view .LVU278
 1115              		.loc 1 631 15 is_stmt 0 view .LVU279
 1116 000a 084B     		ldr	r3, .L82+4
 1117 000c 1B68     		ldr	r3, [r3]
 1118              		.loc 1 631 4 view .LVU280
 1119 000e 8342     		cmp	r3, r0
 1120 0010 05D8     		bhi	.L81
 1121              		.loc 1 638 3 is_stmt 1 view .LVU281
 1122              		.loc 1 638 29 is_stmt 0 view .LVU282
 1123 0012 0023     		movs	r3, #0
 1124 0014 2B60     		str	r3, [r5]
 1125              	.LVL87:
 1126              	.L79:
 1127              		.loc 1 641 2 is_stmt 1 view .LVU283
 1128              		.loc 1 641 12 is_stmt 0 view .LVU284
 1129 0016 054B     		ldr	r3, .L82+4
 1130 0018 1C60     		str	r4, [r3]
 1131              		.loc 1 643 2 is_stmt 1 view .LVU285
 1132              		.loc 1 644 1 is_stmt 0 view .LVU286
 1133 001a 2046     		mov	r0, r4
 1134 001c 38BD     		pop	{r3, r4, r5, pc}
 1135              	.LVL88:
 1136              	.L81:
 1137              		.loc 1 633 3 is_stmt 1 view .LVU287
 1138 001e 044B     		ldr	r3, .L82+8
 1139 0020 9847     		blx	r3
 1140              	.LVL89:
 1141              		.loc 1 634 3 view .LVU288
 1142              		.loc 1 634 29 is_stmt 0 view .LVU289
 1143 0022 0123     		movs	r3, #1
 1144 0024 2B60     		str	r3, [r5]
 1145 0026 F6E7     		b	.L79
 1146              	.L83:
 1147              		.align	2
 1148              	.L82:
 1149 0028 00000000 		.word	xTaskGetTickCount
 1150 002c 00000000 		.word	.LANCHOR8
 1151 0030 00000000 		.word	prvSwitchTimerLists
 1152              		.cfi_endproc
 1153              	.LFE17:
 1155              		.section	.text.prvProcessExpiredTimer,"ax",%progbits
 1156              		.align	1
ARM GAS  C:\Users\Test\AppData\Local\Temp\ccu5IEwJ.s 			page 21


 1157              		.syntax unified
 1158              		.thumb
 1159              		.thumb_func
 1160              		.fpu softvfp
 1162              	prvProcessExpiredTimer:
 1163              	.LVL90:
 1164              	.LFB13:
 1165              		.loc 1 463 1 is_stmt 1 view -0
 1166              		.cfi_startproc
 1167              		@ args = 0, pretend = 0, frame = 0
 1168              		@ frame_needed = 0, uses_anonymous_args = 0
 1169              		.loc 1 463 1 is_stmt 0 view .LVU291
 1170 0000 70B5     		push	{r4, r5, r6, lr}
 1171              	.LCFI27:
 1172              		.cfi_def_cfa_offset 16
 1173              		.cfi_offset 4, -16
 1174              		.cfi_offset 5, -12
 1175              		.cfi_offset 6, -8
 1176              		.cfi_offset 14, -4
 1177 0002 82B0     		sub	sp, sp, #8
 1178              	.LCFI28:
 1179              		.cfi_def_cfa_offset 24
 1180 0004 0546     		mov	r5, r0
 1181 0006 0E46     		mov	r6, r1
 1182              		.loc 1 464 1 is_stmt 1 view .LVU292
 1183              		.loc 1 465 1 view .LVU293
 1184              		.loc 1 465 41 is_stmt 0 view .LVU294
 1185 0008 144B     		ldr	r3, .L89
 1186 000a 1B68     		ldr	r3, [r3]
 1187 000c DB68     		ldr	r3, [r3, #12]
 1188              		.loc 1 465 17 view .LVU295
 1189 000e DC68     		ldr	r4, [r3, #12]
 1190              	.LVL91:
 1191              		.loc 1 469 2 is_stmt 1 view .LVU296
 1192              		.loc 1 469 11 is_stmt 0 view .LVU297
 1193 0010 201D     		adds	r0, r4, #4
 1194              	.LVL92:
 1195              		.loc 1 469 11 view .LVU298
 1196 0012 134B     		ldr	r3, .L89+4
 1197 0014 9847     		blx	r3
 1198              	.LVL93:
 1199              		.loc 1 470 31 is_stmt 1 view .LVU299
 1200              		.loc 1 474 2 view .LVU300
 1201              		.loc 1 474 13 is_stmt 0 view .LVU301
 1202 0016 E369     		ldr	r3, [r4, #28]
 1203              		.loc 1 474 4 view .LVU302
 1204 0018 012B     		cmp	r3, #1
 1205 001a 04D0     		beq	.L88
 1206              	.LVL94:
 1207              	.L85:
 1208              		.loc 1 494 27 is_stmt 1 view .LVU303
 1209              		.loc 1 498 2 view .LVU304
 1210              		.loc 1 498 9 is_stmt 0 view .LVU305
 1211 001c 636A     		ldr	r3, [r4, #36]
 1212              		.loc 1 498 2 view .LVU306
 1213 001e 2046     		mov	r0, r4
 1214 0020 9847     		blx	r3
ARM GAS  C:\Users\Test\AppData\Local\Temp\ccu5IEwJ.s 			page 22


 1215              	.LVL95:
 1216              		.loc 1 499 1 view .LVU307
 1217 0022 02B0     		add	sp, sp, #8
 1218              	.LCFI29:
 1219              		.cfi_remember_state
 1220              		.cfi_def_cfa_offset 16
 1221              		@ sp needed
 1222 0024 70BD     		pop	{r4, r5, r6, pc}
 1223              	.LVL96:
 1224              	.L88:
 1225              	.LCFI30:
 1226              		.cfi_restore_state
 1227              		.loc 1 479 3 is_stmt 1 view .LVU308
 1228              		.loc 1 479 71 is_stmt 0 view .LVU309
 1229 0026 A169     		ldr	r1, [r4, #24]
 1230              		.loc 1 479 7 view .LVU310
 1231 0028 2B46     		mov	r3, r5
 1232 002a 3246     		mov	r2, r6
 1233 002c 2944     		add	r1, r1, r5
 1234 002e 2046     		mov	r0, r4
 1235 0030 0C4E     		ldr	r6, .L89+8
 1236              	.LVL97:
 1237              		.loc 1 479 7 view .LVU311
 1238 0032 B047     		blx	r6
 1239              	.LVL98:
 1240              		.loc 1 479 5 view .LVU312
 1241 0034 0028     		cmp	r0, #0
 1242 0036 F1D0     		beq	.L85
 1243              		.loc 1 483 4 is_stmt 1 view .LVU313
 1244              		.loc 1 483 14 is_stmt 0 view .LVU314
 1245 0038 0021     		movs	r1, #0
 1246 003a 0091     		str	r1, [sp]
 1247 003c 0B46     		mov	r3, r1
 1248 003e 2A46     		mov	r2, r5
 1249 0040 2046     		mov	r0, r4
 1250 0042 094D     		ldr	r5, .L89+12
 1251              	.LVL99:
 1252              		.loc 1 483 14 view .LVU315
 1253 0044 A847     		blx	r5
 1254              	.LVL100:
 1255              		.loc 1 484 4 is_stmt 1 view .LVU316
 1256 0046 0028     		cmp	r0, #0
 1257 0048 E8D1     		bne	.L85
 1258              		.loc 1 484 4 view .LVU317
 1259              	.LBB56:
 1260              	.LBI56:
 1261              		.loc 2 191 30 view .LVU318
 1262              	.LBB57:
 1263              		.loc 2 193 1 view .LVU319
 1264              		.loc 2 195 2 view .LVU320
 1265              		.syntax unified
 1266              	@ 195 "Middlewares/Third_Party/FreeRTOS/Source/portable/GCC/ARM_CM3/portmacro.h" 1
 1267 004a 4FF05003 			mov r3, #80												
 1268 004e 83F31188 		msr basepri, r3											
 1269 0052 BFF36F8F 		isb														
 1270 0056 BFF34F8F 		dsb														
 1271              	
ARM GAS  C:\Users\Test\AppData\Local\Temp\ccu5IEwJ.s 			page 23


 1272              	@ 0 "" 2
 1273              	.LVL101:
 1274              		.thumb
 1275              		.syntax unified
 1276              	.L86:
 1277              		.loc 2 195 2 is_stmt 0 view .LVU321
 1278              	.LBE57:
 1279              	.LBE56:
 1280              		.loc 1 484 4 is_stmt 1 discriminator 1 view .LVU322
 1281              		.loc 1 484 4 discriminator 1 view .LVU323
 1282              		.loc 1 484 4 discriminator 1 view .LVU324
 1283 005a FEE7     		b	.L86
 1284              	.L90:
 1285              		.align	2
 1286              	.L89:
 1287 005c 00000000 		.word	.LANCHOR0
 1288 0060 00000000 		.word	uxListRemove
 1289 0064 00000000 		.word	prvInsertTimerInActiveList
 1290 0068 00000000 		.word	xTimerGenericCommand
 1291              		.cfi_endproc
 1292              	.LFE13:
 1294              		.section	.text.prvProcessTimerOrBlockTask,"ax",%progbits
 1295              		.align	1
 1296              		.syntax unified
 1297              		.thumb
 1298              		.thumb_func
 1299              		.fpu softvfp
 1301              	prvProcessTimerOrBlockTask:
 1302              	.LVL102:
 1303              	.LFB15:
 1304              		.loc 1 539 1 view -0
 1305              		.cfi_startproc
 1306              		@ args = 0, pretend = 0, frame = 8
 1307              		@ frame_needed = 0, uses_anonymous_args = 0
 1308              		.loc 1 539 1 is_stmt 0 view .LVU326
 1309 0000 70B5     		push	{r4, r5, r6, lr}
 1310              	.LCFI31:
 1311              		.cfi_def_cfa_offset 16
 1312              		.cfi_offset 4, -16
 1313              		.cfi_offset 5, -12
 1314              		.cfi_offset 6, -8
 1315              		.cfi_offset 14, -4
 1316 0002 82B0     		sub	sp, sp, #8
 1317              	.LCFI32:
 1318              		.cfi_def_cfa_offset 24
 1319 0004 0646     		mov	r6, r0
 1320 0006 0C46     		mov	r4, r1
 1321              		.loc 1 540 1 is_stmt 1 view .LVU327
 1322              		.loc 1 541 1 view .LVU328
 1323              		.loc 1 543 2 view .LVU329
 1324 0008 184B     		ldr	r3, .L98
 1325 000a 9847     		blx	r3
 1326              	.LVL103:
 1327              		.loc 1 550 3 view .LVU330
 1328              		.loc 1 550 14 is_stmt 0 view .LVU331
 1329 000c 01A8     		add	r0, sp, #4
 1330 000e 184B     		ldr	r3, .L98+4
ARM GAS  C:\Users\Test\AppData\Local\Temp\ccu5IEwJ.s 			page 24


 1331 0010 9847     		blx	r3
 1332              	.LVL104:
 1333              		.loc 1 551 3 is_stmt 1 view .LVU332
 1334              		.loc 1 551 31 is_stmt 0 view .LVU333
 1335 0012 019B     		ldr	r3, [sp, #4]
 1336              		.loc 1 551 5 view .LVU334
 1337 0014 2BBB     		cbnz	r3, .L92
 1338 0016 0546     		mov	r5, r0
 1339              		.loc 1 554 4 is_stmt 1 view .LVU335
 1340              		.loc 1 554 6 is_stmt 0 view .LVU336
 1341 0018 0CB9     		cbnz	r4, .L93
 1342              		.loc 1 554 37 discriminator 1 view .LVU337
 1343 001a B042     		cmp	r0, r6
 1344 001c 1AD2     		bcs	.L97
 1345              	.L93:
 1346              		.loc 1 567 5 is_stmt 1 view .LVU338
 1347              		.loc 1 567 7 is_stmt 0 view .LVU339
 1348 001e 2CB1     		cbz	r4, .L95
 1349              		.loc 1 571 6 is_stmt 1 view .LVU340
 1350              		.loc 1 571 22 is_stmt 0 view .LVU341
 1351 0020 144B     		ldr	r3, .L98+8
 1352 0022 1B68     		ldr	r3, [r3]
 1353 0024 1C68     		ldr	r4, [r3]
 1354              	.LVL105:
 1355              		.loc 1 571 22 view .LVU342
 1356 0026 B4FA84F4 		clz	r4, r4
 1357 002a 6409     		lsrs	r4, r4, #5
 1358              	.LVL106:
 1359              	.L95:
 1360              		.loc 1 574 5 is_stmt 1 view .LVU343
 1361 002c 2246     		mov	r2, r4
 1362 002e 711B     		subs	r1, r6, r5
 1363 0030 114B     		ldr	r3, .L98+12
 1364 0032 1868     		ldr	r0, [r3]
 1365              	.LVL107:
 1366              		.loc 1 574 5 is_stmt 0 view .LVU344
 1367 0034 114B     		ldr	r3, .L98+16
 1368 0036 9847     		blx	r3
 1369              	.LVL108:
 1370              		.loc 1 576 5 is_stmt 1 view .LVU345
 1371              		.loc 1 576 9 is_stmt 0 view .LVU346
 1372 0038 114B     		ldr	r3, .L98+20
 1373 003a 9847     		blx	r3
 1374              	.LVL109:
 1375              		.loc 1 576 7 view .LVU347
 1376 003c 98B9     		cbnz	r0, .L91
 1377              		.loc 1 582 6 is_stmt 1 view .LVU348
 1378 003e 4FF0E023 		mov	r3, #-536813568
 1379 0042 4FF08052 		mov	r2, #268435456
 1380 0046 C3F8042D 		str	r2, [r3, #3332]
 1381              		.loc 1 582 6 view .LVU349
 1382              		.syntax unified
 1383              	@ 582 "Middlewares/Third_Party/FreeRTOS/Source/timers.c" 1
 1384 004a BFF34F8F 		dsb
 1385              	@ 0 "" 2
 1386              		.loc 1 582 6 view .LVU350
 1387              	@ 582 "Middlewares/Third_Party/FreeRTOS/Source/timers.c" 1
ARM GAS  C:\Users\Test\AppData\Local\Temp\ccu5IEwJ.s 			page 25


 1388 004e BFF36F8F 		isb
 1389              	@ 0 "" 2
 1390              		.loc 1 582 28 view .LVU351
 1391              		.thumb
 1392              		.syntax unified
 1393 0052 08E0     		b	.L91
 1394              	.LVL110:
 1395              	.L97:
 1396              		.loc 1 556 5 view .LVU352
 1397              		.loc 1 556 14 is_stmt 0 view .LVU353
 1398 0054 0A4B     		ldr	r3, .L98+20
 1399 0056 9847     		blx	r3
 1400              	.LVL111:
 1401              		.loc 1 557 5 is_stmt 1 view .LVU354
 1402 0058 2946     		mov	r1, r5
 1403 005a 3046     		mov	r0, r6
 1404 005c 094B     		ldr	r3, .L98+24
 1405 005e 9847     		blx	r3
 1406              	.LVL112:
 1407 0060 01E0     		b	.L91
 1408              	.LVL113:
 1409              	.L92:
 1410              		.loc 1 592 4 view .LVU355
 1411              		.loc 1 592 13 is_stmt 0 view .LVU356
 1412 0062 074B     		ldr	r3, .L98+20
 1413 0064 9847     		blx	r3
 1414              	.LVL114:
 1415              	.L91:
 1416              		.loc 1 595 1 view .LVU357
 1417 0066 02B0     		add	sp, sp, #8
 1418              	.LCFI33:
 1419              		.cfi_def_cfa_offset 16
 1420              		@ sp needed
 1421 0068 70BD     		pop	{r4, r5, r6, pc}
 1422              	.LVL115:
 1423              	.L99:
 1424              		.loc 1 595 1 view .LVU358
 1425 006a 00BF     		.align	2
 1426              	.L98:
 1427 006c 00000000 		.word	vTaskSuspendAll
 1428 0070 00000000 		.word	prvSampleTimeNow
 1429 0074 00000000 		.word	.LANCHOR1
 1430 0078 00000000 		.word	.LANCHOR2
 1431 007c 00000000 		.word	vQueueWaitForMessageRestricted
 1432 0080 00000000 		.word	xTaskResumeAll
 1433 0084 00000000 		.word	prvProcessExpiredTimer
 1434              		.cfi_endproc
 1435              	.LFE15:
 1437              		.section	.text.prvProcessReceivedCommands,"ax",%progbits
 1438              		.align	1
 1439              		.syntax unified
 1440              		.thumb
 1441              		.thumb_func
 1442              		.fpu softvfp
 1444              	prvProcessReceivedCommands:
 1445              	.LFB19:
 1446              		.loc 1 689 1 is_stmt 1 view -0
ARM GAS  C:\Users\Test\AppData\Local\Temp\ccu5IEwJ.s 			page 26


 1447              		.cfi_startproc
 1448              		@ args = 0, pretend = 0, frame = 24
 1449              		@ frame_needed = 0, uses_anonymous_args = 0
 1450 0000 30B5     		push	{r4, r5, lr}
 1451              	.LCFI34:
 1452              		.cfi_def_cfa_offset 12
 1453              		.cfi_offset 4, -12
 1454              		.cfi_offset 5, -8
 1455              		.cfi_offset 14, -4
 1456 0002 89B0     		sub	sp, sp, #36
 1457              	.LCFI35:
 1458              		.cfi_def_cfa_offset 48
 1459              		.loc 1 690 1 view .LVU360
 1460              		.loc 1 691 1 view .LVU361
 1461              		.loc 1 692 1 view .LVU362
 1462              		.loc 1 693 1 view .LVU363
 1463              		.loc 1 695 2 view .LVU364
 1464              		.loc 1 695 7 is_stmt 0 view .LVU365
 1465 0004 02E0     		b	.L103
 1466              	.L102:
 1467              		.loc 1 714 29 is_stmt 1 view .LVU366
 1468              		.loc 1 721 3 view .LVU367
 1469              		.loc 1 721 15 is_stmt 0 view .LVU368
 1470 0006 049B     		ldr	r3, [sp, #16]
 1471              		.loc 1 721 5 view .LVU369
 1472 0008 002B     		cmp	r3, #0
 1473 000a 0FDA     		bge	.L115
 1474              	.L103:
 1475              		.loc 1 695 7 is_stmt 1 view .LVU370
 1476              		.loc 1 695 9 is_stmt 0 view .LVU371
 1477 000c 0022     		movs	r2, #0
 1478 000e 04A9     		add	r1, sp, #16
 1479 0010 384B     		ldr	r3, .L118
 1480 0012 1868     		ldr	r0, [r3]
 1481 0014 384B     		ldr	r3, .L118+4
 1482 0016 9847     		blx	r3
 1483              	.LVL116:
 1484              		.loc 1 695 7 view .LVU372
 1485 0018 0028     		cmp	r0, #0
 1486 001a 69D0     		beq	.L116
 1487              		.loc 1 701 4 is_stmt 1 view .LVU373
 1488              		.loc 1 701 16 is_stmt 0 view .LVU374
 1489 001c 049B     		ldr	r3, [sp, #16]
 1490              		.loc 1 701 6 view .LVU375
 1491 001e 002B     		cmp	r3, #0
 1492 0020 F1DA     		bge	.L102
 1493              	.LBB58:
 1494              		.loc 1 703 5 is_stmt 1 discriminator 2 view .LVU376
 1495              	.LVL117:
 1496              		.loc 1 707 5 discriminator 2 view .LVU377
 1497              		.loc 1 707 31 discriminator 2 view .LVU378
 1498              		.loc 1 710 5 discriminator 2 view .LVU379
 1499 0022 0799     		ldr	r1, [sp, #28]
 1500 0024 0698     		ldr	r0, [sp, #24]
 1501 0026 059B     		ldr	r3, [sp, #20]
 1502 0028 9847     		blx	r3
 1503              	.LVL118:
ARM GAS  C:\Users\Test\AppData\Local\Temp\ccu5IEwJ.s 			page 27


 1504              	.LBE58:
 1505 002a ECE7     		b	.L102
 1506              	.LVL119:
 1507              	.L115:
 1508              		.loc 1 725 4 view .LVU380
 1509              		.loc 1 725 12 is_stmt 0 view .LVU381
 1510 002c 069C     		ldr	r4, [sp, #24]
 1511              	.LVL120:
 1512              		.loc 1 727 4 is_stmt 1 view .LVU382
 1513              		.loc 1 727 8 is_stmt 0 view .LVU383
 1514 002e 6369     		ldr	r3, [r4, #20]
 1515              		.loc 1 727 6 view .LVU384
 1516 0030 13B1     		cbz	r3, .L104
 1517              		.loc 1 730 5 is_stmt 1 view .LVU385
 1518              		.loc 1 730 14 is_stmt 0 view .LVU386
 1519 0032 201D     		adds	r0, r4, #4
 1520 0034 314B     		ldr	r3, .L118+8
 1521 0036 9847     		blx	r3
 1522              	.LVL121:
 1523              	.L104:
 1524              		.loc 1 734 29 is_stmt 1 view .LVU387
 1525              		.loc 1 737 106 view .LVU388
 1526              		.loc 1 745 4 view .LVU389
 1527              		.loc 1 745 15 is_stmt 0 view .LVU390
 1528 0038 03A8     		add	r0, sp, #12
 1529 003a 314B     		ldr	r3, .L118+12
 1530 003c 9847     		blx	r3
 1531              	.LVL122:
 1532              		.loc 1 747 4 is_stmt 1 view .LVU391
 1533              		.loc 1 747 20 is_stmt 0 view .LVU392
 1534 003e 049B     		ldr	r3, [sp, #16]
 1535 0040 092B     		cmp	r3, #9
 1536 0042 E3D8     		bhi	.L103
 1537 0044 01A2     		adr	r2, .L107
 1538 0046 52F823F0 		ldr	pc, [r2, r3, lsl #2]
 1539 004a 00BF     		.p2align 2
 1540              	.L107:
 1541 004c 75000000 		.word	.L108+1
 1542 0050 75000000 		.word	.L108+1
 1543 0054 75000000 		.word	.L108+1
 1544 0058 0D000000 		.word	.L103+1
 1545 005c BB000000 		.word	.L106+1
 1546 0060 E1000000 		.word	.L109+1
 1547 0064 75000000 		.word	.L108+1
 1548 0068 75000000 		.word	.L108+1
 1549 006c 0D000000 		.word	.L103+1
 1550 0070 BB000000 		.word	.L106+1
 1551              		.p2align 1
 1552              	.L108:
 1553              		.loc 1 755 6 is_stmt 1 view .LVU393
 1554              		.loc 1 755 75 is_stmt 0 view .LVU394
 1555 0074 059B     		ldr	r3, [sp, #20]
 1556              		.loc 1 755 99 view .LVU395
 1557 0076 A169     		ldr	r1, [r4, #24]
 1558              		.loc 1 755 10 view .LVU396
 1559 0078 0246     		mov	r2, r0
 1560 007a 1944     		add	r1, r1, r3
ARM GAS  C:\Users\Test\AppData\Local\Temp\ccu5IEwJ.s 			page 28


 1561 007c 2046     		mov	r0, r4
 1562              	.LVL123:
 1563              		.loc 1 755 10 view .LVU397
 1564 007e 214D     		ldr	r5, .L118+16
 1565 0080 A847     		blx	r5
 1566              	.LVL124:
 1567              		.loc 1 755 8 view .LVU398
 1568 0082 0028     		cmp	r0, #0
 1569 0084 C2D0     		beq	.L103
 1570              		.loc 1 759 7 is_stmt 1 view .LVU399
 1571              		.loc 1 759 14 is_stmt 0 view .LVU400
 1572 0086 636A     		ldr	r3, [r4, #36]
 1573              		.loc 1 759 7 view .LVU401
 1574 0088 2046     		mov	r0, r4
 1575 008a 9847     		blx	r3
 1576              	.LVL125:
 1577              		.loc 1 760 36 is_stmt 1 view .LVU402
 1578              		.loc 1 762 7 view .LVU403
 1579              		.loc 1 762 18 is_stmt 0 view .LVU404
 1580 008c E369     		ldr	r3, [r4, #28]
 1581              		.loc 1 762 9 view .LVU405
 1582 008e 012B     		cmp	r3, #1
 1583 0090 BCD1     		bne	.L103
 1584              		.loc 1 764 8 is_stmt 1 view .LVU406
 1585              		.loc 1 764 129 is_stmt 0 view .LVU407
 1586 0092 A269     		ldr	r2, [r4, #24]
 1587              		.loc 1 764 18 view .LVU408
 1588 0094 0021     		movs	r1, #0
 1589 0096 0091     		str	r1, [sp]
 1590 0098 0B46     		mov	r3, r1
 1591 009a 0598     		ldr	r0, [sp, #20]
 1592 009c 0244     		add	r2, r2, r0
 1593 009e 2046     		mov	r0, r4
 1594 00a0 194C     		ldr	r4, .L118+20
 1595              	.LVL126:
 1596              		.loc 1 764 18 view .LVU409
 1597 00a2 A047     		blx	r4
 1598              	.LVL127:
 1599              		.loc 1 765 8 is_stmt 1 view .LVU410
 1600 00a4 0028     		cmp	r0, #0
 1601 00a6 B1D1     		bne	.L103
 1602              		.loc 1 765 8 view .LVU411
 1603              	.LBB59:
 1604              	.LBI59:
 1605              		.loc 2 191 30 view .LVU412
 1606              	.LBB60:
 1607              		.loc 2 193 1 view .LVU413
 1608              		.loc 2 195 2 view .LVU414
 1609              		.syntax unified
 1610              	@ 195 "Middlewares/Third_Party/FreeRTOS/Source/portable/GCC/ARM_CM3/portmacro.h" 1
 1611 00a8 4FF05003 			mov r3, #80												
 1612 00ac 83F31188 		msr basepri, r3											
 1613 00b0 BFF36F8F 		isb														
 1614 00b4 BFF34F8F 		dsb														
 1615              	
 1616              	@ 0 "" 2
 1617              	.LVL128:
ARM GAS  C:\Users\Test\AppData\Local\Temp\ccu5IEwJ.s 			page 29


 1618              		.thumb
 1619              		.syntax unified
 1620              	.L110:
 1621              		.loc 2 195 2 is_stmt 0 view .LVU415
 1622              	.LBE60:
 1623              	.LBE59:
 1624              		.loc 1 765 8 is_stmt 1 discriminator 2 view .LVU416
 1625              		.loc 1 765 8 discriminator 2 view .LVU417
 1626              		.loc 1 765 8 discriminator 2 view .LVU418
 1627 00b8 FEE7     		b	.L110
 1628              	.LVL129:
 1629              	.L106:
 1630              		.loc 1 787 6 view .LVU419
 1631              		.loc 1 787 64 is_stmt 0 view .LVU420
 1632 00ba 0599     		ldr	r1, [sp, #20]
 1633              		.loc 1 787 35 view .LVU421
 1634 00bc A161     		str	r1, [r4, #24]
 1635              		.loc 1 788 6 is_stmt 1 view .LVU422
 1636 00be 31B1     		cbz	r1, .L117
 1637              		.loc 1 788 58 discriminator 2 view .LVU423
 1638              		.loc 1 796 6 discriminator 2 view .LVU424
 1639              		.loc 1 796 15 is_stmt 0 discriminator 2 view .LVU425
 1640 00c0 0346     		mov	r3, r0
 1641 00c2 0246     		mov	r2, r0
 1642 00c4 0144     		add	r1, r1, r0
 1643 00c6 2046     		mov	r0, r4
 1644              	.LVL130:
 1645              		.loc 1 796 15 discriminator 2 view .LVU426
 1646 00c8 0E4C     		ldr	r4, .L118+16
 1647              	.LVL131:
 1648              		.loc 1 796 15 discriminator 2 view .LVU427
 1649 00ca A047     		blx	r4
 1650              	.LVL132:
 1651              		.loc 1 797 6 is_stmt 1 discriminator 2 view .LVU428
 1652 00cc 9EE7     		b	.L103
 1653              	.LVL133:
 1654              	.L117:
 1655              		.loc 1 788 6 view .LVU429
 1656              	.LBB61:
 1657              	.LBI61:
 1658              		.loc 2 191 30 view .LVU430
 1659              	.LBB62:
 1660              		.loc 2 193 1 view .LVU431
 1661              		.loc 2 195 2 view .LVU432
 1662              		.syntax unified
 1663              	@ 195 "Middlewares/Third_Party/FreeRTOS/Source/portable/GCC/ARM_CM3/portmacro.h" 1
 1664 00ce 4FF05003 			mov r3, #80												
 1665 00d2 83F31188 		msr basepri, r3											
 1666 00d6 BFF36F8F 		isb														
 1667 00da BFF34F8F 		dsb														
 1668              	
 1669              	@ 0 "" 2
 1670              	.LVL134:
 1671              		.thumb
 1672              		.syntax unified
 1673              	.L112:
 1674              		.loc 2 195 2 is_stmt 0 view .LVU433
ARM GAS  C:\Users\Test\AppData\Local\Temp\ccu5IEwJ.s 			page 30


 1675              	.LBE62:
 1676              	.LBE61:
 1677              		.loc 1 788 6 is_stmt 1 discriminator 5 view .LVU434
 1678              		.loc 1 788 6 discriminator 5 view .LVU435
 1679              		.loc 1 788 6 discriminator 5 view .LVU436
 1680 00de FEE7     		b	.L112
 1681              	.L109:
 1682              		.loc 1 814 7 view .LVU437
 1683              		.loc 1 814 18 is_stmt 0 view .LVU438
 1684 00e0 94F82C30 		ldrb	r3, [r4, #44]	@ zero_extendqisi2
 1685              		.loc 1 814 9 view .LVU439
 1686 00e4 002B     		cmp	r3, #0
 1687 00e6 91D1     		bne	.L103
 1688              		.loc 1 816 8 is_stmt 1 view .LVU440
 1689 00e8 2046     		mov	r0, r4
 1690              	.LVL135:
 1691              		.loc 1 816 8 is_stmt 0 view .LVU441
 1692 00ea 084B     		ldr	r3, .L118+24
 1693 00ec 9847     		blx	r3
 1694              	.LVL136:
 1695 00ee 8DE7     		b	.L103
 1696              	.LVL137:
 1697              	.L116:
 1698              		.loc 1 832 1 view .LVU442
 1699 00f0 09B0     		add	sp, sp, #36
 1700              	.LCFI36:
 1701              		.cfi_def_cfa_offset 12
 1702              		@ sp needed
 1703 00f2 30BD     		pop	{r4, r5, pc}
 1704              	.L119:
 1705              		.align	2
 1706              	.L118:
 1707 00f4 00000000 		.word	.LANCHOR2
 1708 00f8 00000000 		.word	xQueueReceive
 1709 00fc 00000000 		.word	uxListRemove
 1710 0100 00000000 		.word	prvSampleTimeNow
 1711 0104 00000000 		.word	prvInsertTimerInActiveList
 1712 0108 00000000 		.word	xTimerGenericCommand
 1713 010c 00000000 		.word	vPortFree
 1714              		.cfi_endproc
 1715              	.LFE19:
 1717              		.section	.text.prvTimerTask,"ax",%progbits
 1718              		.align	1
 1719              		.syntax unified
 1720              		.thumb
 1721              		.thumb_func
 1722              		.fpu softvfp
 1724              	prvTimerTask:
 1725              	.LFB14:
 1726              		.loc 1 503 1 is_stmt 1 view -0
 1727              		.cfi_startproc
 1728              		@ args = 0, pretend = 0, frame = 8
 1729              		@ frame_needed = 0, uses_anonymous_args = 0
 1730              	.LVL138:
 1731              		.loc 1 503 1 is_stmt 0 view .LVU444
 1732 0000 00B5     		push	{lr}
 1733              	.LCFI37:
ARM GAS  C:\Users\Test\AppData\Local\Temp\ccu5IEwJ.s 			page 31


 1734              		.cfi_def_cfa_offset 4
 1735              		.cfi_offset 14, -4
 1736 0002 83B0     		sub	sp, sp, #12
 1737              	.LCFI38:
 1738              		.cfi_def_cfa_offset 16
 1739              	.LVL139:
 1740              	.L121:
 1741              		.loc 1 504 1 is_stmt 1 discriminator 1 view .LVU445
 1742              		.loc 1 505 1 discriminator 1 view .LVU446
 1743              		.loc 1 508 2 discriminator 1 view .LVU447
 1744              		.loc 1 522 2 discriminator 1 view .LVU448
 1745              		.loc 1 526 3 discriminator 1 view .LVU449
 1746              		.loc 1 526 21 is_stmt 0 discriminator 1 view .LVU450
 1747 0004 01A8     		add	r0, sp, #4
 1748 0006 044B     		ldr	r3, .L123
 1749 0008 9847     		blx	r3
 1750              	.LVL140:
 1751              		.loc 1 530 3 is_stmt 1 discriminator 1 view .LVU451
 1752 000a 0199     		ldr	r1, [sp, #4]
 1753 000c 034B     		ldr	r3, .L123+4
 1754 000e 9847     		blx	r3
 1755              	.LVL141:
 1756              		.loc 1 533 3 discriminator 1 view .LVU452
 1757 0010 034B     		ldr	r3, .L123+8
 1758 0012 9847     		blx	r3
 1759              	.LVL142:
 1760              		.loc 1 522 8 discriminator 1 view .LVU453
 1761 0014 F6E7     		b	.L121
 1762              	.L124:
 1763 0016 00BF     		.align	2
 1764              	.L123:
 1765 0018 00000000 		.word	prvGetNextExpireTime
 1766 001c 00000000 		.word	prvProcessTimerOrBlockTask
 1767 0020 00000000 		.word	prvProcessReceivedCommands
 1768              		.cfi_endproc
 1769              	.LFE14:
 1771              		.section	.text.xTimerGetTimerDaemonTaskHandle,"ax",%progbits
 1772              		.align	1
 1773              		.global	xTimerGetTimerDaemonTaskHandle
 1774              		.syntax unified
 1775              		.thumb
 1776              		.thumb_func
 1777              		.fpu softvfp
 1779              	xTimerGetTimerDaemonTaskHandle:
 1780              	.LFB9:
 1781              		.loc 1 425 1 view -0
 1782              		.cfi_startproc
 1783              		@ args = 0, pretend = 0, frame = 0
 1784              		@ frame_needed = 0, uses_anonymous_args = 0
 1785              		@ link register save eliminated.
 1786              		.loc 1 428 2 view .LVU455
 1787 0000 064B     		ldr	r3, .L129
 1788 0002 1868     		ldr	r0, [r3]
 1789 0004 00B1     		cbz	r0, .L128
 1790              		.loc 1 430 1 is_stmt 0 view .LVU456
 1791 0006 7047     		bx	lr
 1792              	.L128:
ARM GAS  C:\Users\Test\AppData\Local\Temp\ccu5IEwJ.s 			page 32


 1793              		.loc 1 428 2 is_stmt 1 view .LVU457
 1794              	.LBB63:
 1795              	.LBI63:
 1796              		.loc 2 191 30 view .LVU458
 1797              	.LBB64:
 1798              		.loc 2 193 1 view .LVU459
 1799              		.loc 2 195 2 view .LVU460
 1800              		.syntax unified
 1801              	@ 195 "Middlewares/Third_Party/FreeRTOS/Source/portable/GCC/ARM_CM3/portmacro.h" 1
 1802 0008 4FF05003 			mov r3, #80												
 1803 000c 83F31188 		msr basepri, r3											
 1804 0010 BFF36F8F 		isb														
 1805 0014 BFF34F8F 		dsb														
 1806              	
 1807              	@ 0 "" 2
 1808              	.LVL143:
 1809              		.thumb
 1810              		.syntax unified
 1811              	.L127:
 1812              		.loc 2 195 2 is_stmt 0 view .LVU461
 1813              	.LBE64:
 1814              	.LBE63:
 1815              		.loc 1 428 2 is_stmt 1 discriminator 1 view .LVU462
 1816              		.loc 1 428 2 discriminator 1 view .LVU463
 1817              		.loc 1 428 2 discriminator 1 view .LVU464
 1818 0018 FEE7     		b	.L127
 1819              	.L130:
 1820 001a 00BF     		.align	2
 1821              	.L129:
 1822 001c 00000000 		.word	.LANCHOR7
 1823              		.cfi_endproc
 1824              	.LFE9:
 1826              		.section	.text.xTimerGetPeriod,"ax",%progbits
 1827              		.align	1
 1828              		.global	xTimerGetPeriod
 1829              		.syntax unified
 1830              		.thumb
 1831              		.thumb_func
 1832              		.fpu softvfp
 1834              	xTimerGetPeriod:
 1835              	.LVL144:
 1836              	.LFB10:
 1837              		.loc 1 434 1 view -0
 1838              		.cfi_startproc
 1839              		@ args = 0, pretend = 0, frame = 0
 1840              		@ frame_needed = 0, uses_anonymous_args = 0
 1841              		@ link register save eliminated.
 1842              		.loc 1 435 1 view .LVU466
 1843              		.loc 1 437 2 view .LVU467
 1844 0000 08B1     		cbz	r0, .L134
 1845              		.loc 1 437 24 discriminator 2 view .LVU468
 1846              		.loc 1 438 2 discriminator 2 view .LVU469
 1847              		.loc 1 439 1 is_stmt 0 discriminator 2 view .LVU470
 1848 0002 8069     		ldr	r0, [r0, #24]
 1849              	.LVL145:
 1850              		.loc 1 439 1 discriminator 2 view .LVU471
 1851 0004 7047     		bx	lr
ARM GAS  C:\Users\Test\AppData\Local\Temp\ccu5IEwJ.s 			page 33


 1852              	.LVL146:
 1853              	.L134:
 1854              		.loc 1 437 2 is_stmt 1 view .LVU472
 1855              	.LBB65:
 1856              	.LBI65:
 1857              		.loc 2 191 30 view .LVU473
 1858              	.LBB66:
 1859              		.loc 2 193 1 view .LVU474
 1860              		.loc 2 195 2 view .LVU475
 1861              		.syntax unified
 1862              	@ 195 "Middlewares/Third_Party/FreeRTOS/Source/portable/GCC/ARM_CM3/portmacro.h" 1
 1863 0006 4FF05003 			mov r3, #80												
 1864 000a 83F31188 		msr basepri, r3											
 1865 000e BFF36F8F 		isb														
 1866 0012 BFF34F8F 		dsb														
 1867              	
 1868              	@ 0 "" 2
 1869              	.LVL147:
 1870              		.thumb
 1871              		.syntax unified
 1872              	.L133:
 1873              		.loc 2 195 2 is_stmt 0 view .LVU476
 1874              	.LBE66:
 1875              	.LBE65:
 1876              		.loc 1 437 2 is_stmt 1 discriminator 1 view .LVU477
 1877              		.loc 1 437 2 discriminator 1 view .LVU478
 1878              		.loc 1 437 2 discriminator 1 view .LVU479
 1879 0016 FEE7     		b	.L133
 1880              		.cfi_endproc
 1881              	.LFE10:
 1883              		.section	.text.xTimerGetExpiryTime,"ax",%progbits
 1884              		.align	1
 1885              		.global	xTimerGetExpiryTime
 1886              		.syntax unified
 1887              		.thumb
 1888              		.thumb_func
 1889              		.fpu softvfp
 1891              	xTimerGetExpiryTime:
 1892              	.LVL148:
 1893              	.LFB11:
 1894              		.loc 1 443 1 view -0
 1895              		.cfi_startproc
 1896              		@ args = 0, pretend = 0, frame = 0
 1897              		@ frame_needed = 0, uses_anonymous_args = 0
 1898              		@ link register save eliminated.
 1899              		.loc 1 444 1 view .LVU481
 1900              		.loc 1 445 1 view .LVU482
 1901              		.loc 1 447 2 view .LVU483
 1902 0000 08B1     		cbz	r0, .L138
 1903              		.loc 1 447 24 discriminator 2 view .LVU484
 1904              		.loc 1 448 2 discriminator 2 view .LVU485
 1905              	.LVL149:
 1906              		.loc 1 449 2 discriminator 2 view .LVU486
 1907              		.loc 1 450 1 is_stmt 0 discriminator 2 view .LVU487
 1908 0002 4068     		ldr	r0, [r0, #4]
 1909              	.LVL150:
 1910              		.loc 1 450 1 discriminator 2 view .LVU488
ARM GAS  C:\Users\Test\AppData\Local\Temp\ccu5IEwJ.s 			page 34


 1911 0004 7047     		bx	lr
 1912              	.LVL151:
 1913              	.L138:
 1914              		.loc 1 447 2 is_stmt 1 view .LVU489
 1915              	.LBB67:
 1916              	.LBI67:
 1917              		.loc 2 191 30 view .LVU490
 1918              	.LBB68:
 1919              		.loc 2 193 1 view .LVU491
 1920              		.loc 2 195 2 view .LVU492
 1921              		.syntax unified
 1922              	@ 195 "Middlewares/Third_Party/FreeRTOS/Source/portable/GCC/ARM_CM3/portmacro.h" 1
 1923 0006 4FF05003 			mov r3, #80												
 1924 000a 83F31188 		msr basepri, r3											
 1925 000e BFF36F8F 		isb														
 1926 0012 BFF34F8F 		dsb														
 1927              	
 1928              	@ 0 "" 2
 1929              	.LVL152:
 1930              		.thumb
 1931              		.syntax unified
 1932              	.L137:
 1933              		.loc 2 195 2 is_stmt 0 view .LVU493
 1934              	.LBE68:
 1935              	.LBE67:
 1936              		.loc 1 447 2 is_stmt 1 discriminator 1 view .LVU494
 1937              		.loc 1 447 2 discriminator 1 view .LVU495
 1938              		.loc 1 447 2 discriminator 1 view .LVU496
 1939 0016 FEE7     		b	.L137
 1940              		.cfi_endproc
 1941              	.LFE11:
 1943              		.section	.text.pcTimerGetName,"ax",%progbits
 1944              		.align	1
 1945              		.global	pcTimerGetName
 1946              		.syntax unified
 1947              		.thumb
 1948              		.thumb_func
 1949              		.fpu softvfp
 1951              	pcTimerGetName:
 1952              	.LVL153:
 1953              	.LFB12:
 1954              		.loc 1 454 1 view -0
 1955              		.cfi_startproc
 1956              		@ args = 0, pretend = 0, frame = 0
 1957              		@ frame_needed = 0, uses_anonymous_args = 0
 1958              		@ link register save eliminated.
 1959              		.loc 1 455 1 view .LVU498
 1960              		.loc 1 457 2 view .LVU499
 1961 0000 08B1     		cbz	r0, .L142
 1962              		.loc 1 457 24 discriminator 2 view .LVU500
 1963              		.loc 1 458 2 discriminator 2 view .LVU501
 1964              		.loc 1 459 1 is_stmt 0 discriminator 2 view .LVU502
 1965 0002 0068     		ldr	r0, [r0]
 1966              	.LVL154:
 1967              		.loc 1 459 1 discriminator 2 view .LVU503
 1968 0004 7047     		bx	lr
 1969              	.LVL155:
ARM GAS  C:\Users\Test\AppData\Local\Temp\ccu5IEwJ.s 			page 35


 1970              	.L142:
 1971              		.loc 1 457 2 is_stmt 1 view .LVU504
 1972              	.LBB69:
 1973              	.LBI69:
 1974              		.loc 2 191 30 view .LVU505
 1975              	.LBB70:
 1976              		.loc 2 193 1 view .LVU506
 1977              		.loc 2 195 2 view .LVU507
 1978              		.syntax unified
 1979              	@ 195 "Middlewares/Third_Party/FreeRTOS/Source/portable/GCC/ARM_CM3/portmacro.h" 1
 1980 0006 4FF05003 			mov r3, #80												
 1981 000a 83F31188 		msr basepri, r3											
 1982 000e BFF36F8F 		isb														
 1983 0012 BFF34F8F 		dsb														
 1984              	
 1985              	@ 0 "" 2
 1986              	.LVL156:
 1987              		.thumb
 1988              		.syntax unified
 1989              	.L141:
 1990              		.loc 2 195 2 is_stmt 0 view .LVU508
 1991              	.LBE70:
 1992              	.LBE69:
 1993              		.loc 1 457 2 is_stmt 1 discriminator 1 view .LVU509
 1994              		.loc 1 457 2 discriminator 1 view .LVU510
 1995              		.loc 1 457 2 discriminator 1 view .LVU511
 1996 0016 FEE7     		b	.L141
 1997              		.cfi_endproc
 1998              	.LFE12:
 2000              		.section	.text.xTimerIsTimerActive,"ax",%progbits
 2001              		.align	1
 2002              		.global	xTimerIsTimerActive
 2003              		.syntax unified
 2004              		.thumb
 2005              		.thumb_func
 2006              		.fpu softvfp
 2008              	xTimerIsTimerActive:
 2009              	.LVL157:
 2010              	.LFB22:
 2011              		.loc 1 946 1 view -0
 2012              		.cfi_startproc
 2013              		@ args = 0, pretend = 0, frame = 0
 2014              		@ frame_needed = 0, uses_anonymous_args = 0
 2015              		.loc 1 947 1 view .LVU513
 2016              		.loc 1 948 1 view .LVU514
 2017              		.loc 1 950 2 view .LVU515
 2018 0000 58B1     		cbz	r0, .L148
 2019              		.loc 1 946 1 is_stmt 0 discriminator 2 view .LVU516
 2020 0002 10B5     		push	{r4, lr}
 2021              	.LCFI39:
 2022              		.cfi_def_cfa_offset 8
 2023              		.cfi_offset 4, -8
 2024              		.cfi_offset 14, -4
 2025 0004 0446     		mov	r4, r0
 2026              		.loc 1 950 24 is_stmt 1 discriminator 2 view .LVU517
 2027              		.loc 1 953 2 discriminator 2 view .LVU518
 2028 0006 094B     		ldr	r3, .L149
ARM GAS  C:\Users\Test\AppData\Local\Temp\ccu5IEwJ.s 			page 36


 2029 0008 9847     		blx	r3
 2030              	.LVL158:
 2031              		.loc 1 958 3 discriminator 2 view .LVU519
 2032              		.loc 1 958 44 is_stmt 0 discriminator 2 view .LVU520
 2033 000a 6469     		ldr	r4, [r4, #20]
 2034              	.LVL159:
 2035              		.loc 1 958 26 discriminator 2 view .LVU521
 2036 000c 003C     		subs	r4, r4, #0
 2037 000e 18BF     		it	ne
 2038 0010 0124     		movne	r4, #1
 2039              	.LVL160:
 2040              		.loc 1 960 2 is_stmt 1 discriminator 2 view .LVU522
 2041 0012 074B     		ldr	r3, .L149+4
 2042 0014 9847     		blx	r3
 2043              	.LVL161:
 2044              		.loc 1 962 2 discriminator 2 view .LVU523
 2045              		.loc 1 963 1 is_stmt 0 discriminator 2 view .LVU524
 2046 0016 2046     		mov	r0, r4
 2047 0018 10BD     		pop	{r4, pc}
 2048              	.LVL162:
 2049              	.L148:
 2050              	.LCFI40:
 2051              		.cfi_def_cfa_offset 0
 2052              		.cfi_restore 4
 2053              		.cfi_restore 14
 2054              		.loc 1 950 2 is_stmt 1 view .LVU525
 2055              	.LBB71:
 2056              	.LBI71:
 2057              		.loc 2 191 30 view .LVU526
 2058              	.LBB72:
 2059              		.loc 2 193 1 view .LVU527
 2060              		.loc 2 195 2 view .LVU528
 2061              		.syntax unified
 2062              	@ 195 "Middlewares/Third_Party/FreeRTOS/Source/portable/GCC/ARM_CM3/portmacro.h" 1
 2063 001a 4FF05003 			mov r3, #80												
 2064 001e 83F31188 		msr basepri, r3											
 2065 0022 BFF36F8F 		isb														
 2066 0026 BFF34F8F 		dsb														
 2067              	
 2068              	@ 0 "" 2
 2069              	.LVL163:
 2070              		.thumb
 2071              		.syntax unified
 2072              	.L145:
 2073              		.loc 2 195 2 is_stmt 0 view .LVU529
 2074              	.LBE72:
 2075              	.LBE71:
 2076              		.loc 1 950 2 is_stmt 1 discriminator 1 view .LVU530
 2077              		.loc 1 950 2 discriminator 1 view .LVU531
 2078              		.loc 1 950 2 discriminator 1 view .LVU532
 2079 002a FEE7     		b	.L145
 2080              	.L150:
 2081              		.align	2
 2082              	.L149:
 2083 002c 00000000 		.word	vPortEnterCritical
 2084 0030 00000000 		.word	vPortExitCritical
 2085              		.cfi_endproc
ARM GAS  C:\Users\Test\AppData\Local\Temp\ccu5IEwJ.s 			page 37


 2086              	.LFE22:
 2088              		.section	.text.pvTimerGetTimerID,"ax",%progbits
 2089              		.align	1
 2090              		.global	pvTimerGetTimerID
 2091              		.syntax unified
 2092              		.thumb
 2093              		.thumb_func
 2094              		.fpu softvfp
 2096              	pvTimerGetTimerID:
 2097              	.LVL164:
 2098              	.LFB23:
 2099              		.loc 1 967 1 view -0
 2100              		.cfi_startproc
 2101              		@ args = 0, pretend = 0, frame = 0
 2102              		@ frame_needed = 0, uses_anonymous_args = 0
 2103              		.loc 1 968 1 view .LVU534
 2104              		.loc 1 969 1 view .LVU535
 2105              		.loc 1 971 2 view .LVU536
 2106 0000 40B1     		cbz	r0, .L156
 2107              		.loc 1 967 1 is_stmt 0 discriminator 2 view .LVU537
 2108 0002 10B5     		push	{r4, lr}
 2109              	.LCFI41:
 2110              		.cfi_def_cfa_offset 8
 2111              		.cfi_offset 4, -8
 2112              		.cfi_offset 14, -4
 2113 0004 0446     		mov	r4, r0
 2114              		.loc 1 971 24 is_stmt 1 discriminator 2 view .LVU538
 2115              		.loc 1 973 2 discriminator 2 view .LVU539
 2116 0006 084B     		ldr	r3, .L157
 2117 0008 9847     		blx	r3
 2118              	.LVL165:
 2119              		.loc 1 975 3 discriminator 2 view .LVU540
 2120              		.loc 1 975 12 is_stmt 0 discriminator 2 view .LVU541
 2121 000a 246A     		ldr	r4, [r4, #32]
 2122              	.LVL166:
 2123              		.loc 1 977 2 is_stmt 1 discriminator 2 view .LVU542
 2124 000c 074B     		ldr	r3, .L157+4
 2125 000e 9847     		blx	r3
 2126              	.LVL167:
 2127              		.loc 1 979 2 discriminator 2 view .LVU543
 2128              		.loc 1 980 1 is_stmt 0 discriminator 2 view .LVU544
 2129 0010 2046     		mov	r0, r4
 2130 0012 10BD     		pop	{r4, pc}
 2131              	.LVL168:
 2132              	.L156:
 2133              	.LCFI42:
 2134              		.cfi_def_cfa_offset 0
 2135              		.cfi_restore 4
 2136              		.cfi_restore 14
 2137              		.loc 1 971 2 is_stmt 1 view .LVU545
 2138              	.LBB73:
 2139              	.LBI73:
 2140              		.loc 2 191 30 view .LVU546
 2141              	.LBB74:
 2142              		.loc 2 193 1 view .LVU547
 2143              		.loc 2 195 2 view .LVU548
 2144              		.syntax unified
ARM GAS  C:\Users\Test\AppData\Local\Temp\ccu5IEwJ.s 			page 38


 2145              	@ 195 "Middlewares/Third_Party/FreeRTOS/Source/portable/GCC/ARM_CM3/portmacro.h" 1
 2146 0014 4FF05003 			mov r3, #80												
 2147 0018 83F31188 		msr basepri, r3											
 2148 001c BFF36F8F 		isb														
 2149 0020 BFF34F8F 		dsb														
 2150              	
 2151              	@ 0 "" 2
 2152              	.LVL169:
 2153              		.thumb
 2154              		.syntax unified
 2155              	.L153:
 2156              		.loc 2 195 2 is_stmt 0 view .LVU549
 2157              	.LBE74:
 2158              	.LBE73:
 2159              		.loc 1 971 2 is_stmt 1 discriminator 1 view .LVU550
 2160              		.loc 1 971 2 discriminator 1 view .LVU551
 2161              		.loc 1 971 2 discriminator 1 view .LVU552
 2162 0024 FEE7     		b	.L153
 2163              	.L158:
 2164 0026 00BF     		.align	2
 2165              	.L157:
 2166 0028 00000000 		.word	vPortEnterCritical
 2167 002c 00000000 		.word	vPortExitCritical
 2168              		.cfi_endproc
 2169              	.LFE23:
 2171              		.section	.text.vTimerSetTimerID,"ax",%progbits
 2172              		.align	1
 2173              		.global	vTimerSetTimerID
 2174              		.syntax unified
 2175              		.thumb
 2176              		.thumb_func
 2177              		.fpu softvfp
 2179              	vTimerSetTimerID:
 2180              	.LVL170:
 2181              	.LFB24:
 2182              		.loc 1 984 1 view -0
 2183              		.cfi_startproc
 2184              		@ args = 0, pretend = 0, frame = 0
 2185              		@ frame_needed = 0, uses_anonymous_args = 0
 2186              		.loc 1 984 1 is_stmt 0 view .LVU554
 2187 0000 38B5     		push	{r3, r4, r5, lr}
 2188              	.LCFI43:
 2189              		.cfi_def_cfa_offset 16
 2190              		.cfi_offset 3, -16
 2191              		.cfi_offset 4, -12
 2192              		.cfi_offset 5, -8
 2193              		.cfi_offset 14, -4
 2194              		.loc 1 985 1 is_stmt 1 view .LVU555
 2195              	.LVL171:
 2196              		.loc 1 987 2 view .LVU556
 2197 0002 38B1     		cbz	r0, .L163
 2198 0004 0C46     		mov	r4, r1
 2199 0006 0546     		mov	r5, r0
 2200              		.loc 1 987 24 discriminator 2 view .LVU557
 2201              		.loc 1 989 2 discriminator 2 view .LVU558
 2202 0008 074B     		ldr	r3, .L164
 2203 000a 9847     		blx	r3
ARM GAS  C:\Users\Test\AppData\Local\Temp\ccu5IEwJ.s 			page 39


 2204              	.LVL172:
 2205              		.loc 1 991 3 discriminator 2 view .LVU559
 2206              		.loc 1 991 22 is_stmt 0 discriminator 2 view .LVU560
 2207 000c 2C62     		str	r4, [r5, #32]
 2208              		.loc 1 993 2 is_stmt 1 discriminator 2 view .LVU561
 2209 000e 074B     		ldr	r3, .L164+4
 2210 0010 9847     		blx	r3
 2211              	.LVL173:
 2212              		.loc 1 994 1 is_stmt 0 discriminator 2 view .LVU562
 2213 0012 38BD     		pop	{r3, r4, r5, pc}
 2214              	.LVL174:
 2215              	.L163:
 2216              		.loc 1 987 2 is_stmt 1 view .LVU563
 2217              	.LBB75:
 2218              	.LBI75:
 2219              		.loc 2 191 30 view .LVU564
 2220              	.LBB76:
 2221              		.loc 2 193 1 view .LVU565
 2222              		.loc 2 195 2 view .LVU566
 2223              		.syntax unified
 2224              	@ 195 "Middlewares/Third_Party/FreeRTOS/Source/portable/GCC/ARM_CM3/portmacro.h" 1
 2225 0014 4FF05003 			mov r3, #80												
 2226 0018 83F31188 		msr basepri, r3											
 2227 001c BFF36F8F 		isb														
 2228 0020 BFF34F8F 		dsb														
 2229              	
 2230              	@ 0 "" 2
 2231              	.LVL175:
 2232              		.thumb
 2233              		.syntax unified
 2234              	.L161:
 2235              		.loc 2 195 2 is_stmt 0 view .LVU567
 2236              	.LBE76:
 2237              	.LBE75:
 2238              		.loc 1 987 2 is_stmt 1 discriminator 1 view .LVU568
 2239              		.loc 1 987 2 discriminator 1 view .LVU569
 2240              		.loc 1 987 2 discriminator 1 view .LVU570
 2241 0024 FEE7     		b	.L161
 2242              	.L165:
 2243 0026 00BF     		.align	2
 2244              	.L164:
 2245 0028 00000000 		.word	vPortEnterCritical
 2246 002c 00000000 		.word	vPortExitCritical
 2247              		.cfi_endproc
 2248              	.LFE24:
 2250              		.section	.text.xTimerPendFunctionCallFromISR,"ax",%progbits
 2251              		.align	1
 2252              		.global	xTimerPendFunctionCallFromISR
 2253              		.syntax unified
 2254              		.thumb
 2255              		.thumb_func
 2256              		.fpu softvfp
 2258              	xTimerPendFunctionCallFromISR:
 2259              	.LVL176:
 2260              	.LFB25:
 2261              		.loc 1 1000 2 view -0
 2262              		.cfi_startproc
ARM GAS  C:\Users\Test\AppData\Local\Temp\ccu5IEwJ.s 			page 40


 2263              		@ args = 0, pretend = 0, frame = 16
 2264              		@ frame_needed = 0, uses_anonymous_args = 0
 2265              		.loc 1 1000 2 is_stmt 0 view .LVU572
 2266 0000 10B5     		push	{r4, lr}
 2267              	.LCFI44:
 2268              		.cfi_def_cfa_offset 8
 2269              		.cfi_offset 4, -8
 2270              		.cfi_offset 14, -4
 2271 0002 84B0     		sub	sp, sp, #16
 2272              	.LCFI45:
 2273              		.cfi_def_cfa_offset 24
 2274 0004 1446     		mov	r4, r2
 2275 0006 1A46     		mov	r2, r3
 2276              	.LVL177:
 2277              		.loc 1 1001 2 is_stmt 1 view .LVU573
 2278              		.loc 1 1002 2 view .LVU574
 2279              		.loc 1 1006 3 view .LVU575
 2280              		.loc 1 1006 23 is_stmt 0 view .LVU576
 2281 0008 6FF00103 		mvn	r3, #1
 2282              	.LVL178:
 2283              		.loc 1 1006 23 view .LVU577
 2284 000c 0093     		str	r3, [sp]
 2285              		.loc 1 1007 3 is_stmt 1 view .LVU578
 2286              		.loc 1 1007 53 is_stmt 0 view .LVU579
 2287 000e 0190     		str	r0, [sp, #4]
 2288              		.loc 1 1008 3 is_stmt 1 view .LVU580
 2289              		.loc 1 1008 47 is_stmt 0 view .LVU581
 2290 0010 0291     		str	r1, [sp, #8]
 2291              		.loc 1 1009 3 is_stmt 1 view .LVU582
 2292              		.loc 1 1009 47 is_stmt 0 view .LVU583
 2293 0012 0394     		str	r4, [sp, #12]
 2294              		.loc 1 1011 3 is_stmt 1 view .LVU584
 2295              		.loc 1 1011 13 is_stmt 0 view .LVU585
 2296 0014 0023     		movs	r3, #0
 2297 0016 6946     		mov	r1, sp
 2298              	.LVL179:
 2299              		.loc 1 1011 13 view .LVU586
 2300 0018 0248     		ldr	r0, .L168
 2301              	.LVL180:
 2302              		.loc 1 1011 13 view .LVU587
 2303 001a 0068     		ldr	r0, [r0]
 2304 001c 024C     		ldr	r4, .L168+4
 2305              	.LVL181:
 2306              		.loc 1 1011 13 view .LVU588
 2307 001e A047     		blx	r4
 2308              	.LVL182:
 2309              		.loc 1 1013 87 is_stmt 1 view .LVU589
 2310              		.loc 1 1015 3 view .LVU590
 2311              		.loc 1 1016 2 is_stmt 0 view .LVU591
 2312 0020 04B0     		add	sp, sp, #16
 2313              	.LCFI46:
 2314              		.cfi_def_cfa_offset 8
 2315              		@ sp needed
 2316 0022 10BD     		pop	{r4, pc}
 2317              	.L169:
 2318              		.align	2
 2319              	.L168:
ARM GAS  C:\Users\Test\AppData\Local\Temp\ccu5IEwJ.s 			page 41


 2320 0024 00000000 		.word	.LANCHOR2
 2321 0028 00000000 		.word	xQueueGenericSendFromISR
 2322              		.cfi_endproc
 2323              	.LFE25:
 2325              		.section	.text.xTimerPendFunctionCall,"ax",%progbits
 2326              		.align	1
 2327              		.global	xTimerPendFunctionCall
 2328              		.syntax unified
 2329              		.thumb
 2330              		.thumb_func
 2331              		.fpu softvfp
 2333              	xTimerPendFunctionCall:
 2334              	.LVL183:
 2335              	.LFB26:
 2336              		.loc 1 1024 2 is_stmt 1 view -0
 2337              		.cfi_startproc
 2338              		@ args = 0, pretend = 0, frame = 16
 2339              		@ frame_needed = 0, uses_anonymous_args = 0
 2340              		.loc 1 1024 2 is_stmt 0 view .LVU593
 2341 0000 30B5     		push	{r4, r5, lr}
 2342              	.LCFI47:
 2343              		.cfi_def_cfa_offset 12
 2344              		.cfi_offset 4, -12
 2345              		.cfi_offset 5, -8
 2346              		.cfi_offset 14, -4
 2347 0002 85B0     		sub	sp, sp, #20
 2348              	.LCFI48:
 2349              		.cfi_def_cfa_offset 32
 2350 0004 0C46     		mov	r4, r1
 2351 0006 1146     		mov	r1, r2
 2352              	.LVL184:
 2353              		.loc 1 1024 2 view .LVU594
 2354 0008 1A46     		mov	r2, r3
 2355              	.LVL185:
 2356              		.loc 1 1025 2 is_stmt 1 view .LVU595
 2357              		.loc 1 1026 2 view .LVU596
 2358              		.loc 1 1031 3 view .LVU597
 2359 000a 0C4B     		ldr	r3, .L175
 2360              	.LVL186:
 2361              		.loc 1 1031 3 is_stmt 0 view .LVU598
 2362 000c 1D68     		ldr	r5, [r3]
 2363 000e 65B1     		cbz	r5, .L174
 2364              		.loc 1 1031 30 is_stmt 1 discriminator 2 view .LVU599
 2365              		.loc 1 1035 3 discriminator 2 view .LVU600
 2366              		.loc 1 1035 23 is_stmt 0 discriminator 2 view .LVU601
 2367 0010 4FF0FF33 		mov	r3, #-1
 2368 0014 0093     		str	r3, [sp]
 2369              		.loc 1 1036 3 is_stmt 1 discriminator 2 view .LVU602
 2370              		.loc 1 1036 53 is_stmt 0 discriminator 2 view .LVU603
 2371 0016 0190     		str	r0, [sp, #4]
 2372              		.loc 1 1037 3 is_stmt 1 discriminator 2 view .LVU604
 2373              		.loc 1 1037 47 is_stmt 0 discriminator 2 view .LVU605
 2374 0018 0294     		str	r4, [sp, #8]
 2375              		.loc 1 1038 3 is_stmt 1 discriminator 2 view .LVU606
 2376              		.loc 1 1038 47 is_stmt 0 discriminator 2 view .LVU607
 2377 001a 0391     		str	r1, [sp, #12]
 2378              		.loc 1 1040 3 is_stmt 1 discriminator 2 view .LVU608
ARM GAS  C:\Users\Test\AppData\Local\Temp\ccu5IEwJ.s 			page 42


 2379              		.loc 1 1040 13 is_stmt 0 discriminator 2 view .LVU609
 2380 001c 0023     		movs	r3, #0
 2381 001e 6946     		mov	r1, sp
 2382              	.LVL187:
 2383              		.loc 1 1040 13 discriminator 2 view .LVU610
 2384 0020 2846     		mov	r0, r5
 2385              	.LVL188:
 2386              		.loc 1 1040 13 discriminator 2 view .LVU611
 2387 0022 074C     		ldr	r4, .L175+4
 2388              	.LVL189:
 2389              		.loc 1 1040 13 discriminator 2 view .LVU612
 2390 0024 A047     		blx	r4
 2391              	.LVL190:
 2392              		.loc 1 1042 78 is_stmt 1 discriminator 2 view .LVU613
 2393              		.loc 1 1044 3 discriminator 2 view .LVU614
 2394              		.loc 1 1045 2 is_stmt 0 discriminator 2 view .LVU615
 2395 0026 05B0     		add	sp, sp, #20
 2396              	.LCFI49:
 2397              		.cfi_remember_state
 2398              		.cfi_def_cfa_offset 12
 2399              		@ sp needed
 2400 0028 30BD     		pop	{r4, r5, pc}
 2401              	.LVL191:
 2402              	.L174:
 2403              	.LCFI50:
 2404              		.cfi_restore_state
 2405              		.loc 1 1031 3 is_stmt 1 view .LVU616
 2406              	.LBB77:
 2407              	.LBI77:
 2408              		.loc 2 191 30 view .LVU617
 2409              	.LBB78:
 2410              		.loc 2 193 1 view .LVU618
 2411              		.loc 2 195 2 view .LVU619
 2412              		.syntax unified
 2413              	@ 195 "Middlewares/Third_Party/FreeRTOS/Source/portable/GCC/ARM_CM3/portmacro.h" 1
 2414 002a 4FF05003 			mov r3, #80												
 2415 002e 83F31188 		msr basepri, r3											
 2416 0032 BFF36F8F 		isb														
 2417 0036 BFF34F8F 		dsb														
 2418              	
 2419              	@ 0 "" 2
 2420              	.LVL192:
 2421              		.thumb
 2422              		.syntax unified
 2423              	.L172:
 2424              		.loc 2 195 2 is_stmt 0 view .LVU620
 2425              	.LBE78:
 2426              	.LBE77:
 2427              		.loc 1 1031 3 is_stmt 1 discriminator 1 view .LVU621
 2428              		.loc 1 1031 3 discriminator 1 view .LVU622
 2429              		.loc 1 1031 3 discriminator 1 view .LVU623
 2430 003a FEE7     		b	.L172
 2431              	.L176:
 2432              		.align	2
 2433              	.L175:
 2434 003c 00000000 		.word	.LANCHOR2
 2435 0040 00000000 		.word	xQueueGenericSend
ARM GAS  C:\Users\Test\AppData\Local\Temp\ccu5IEwJ.s 			page 43


 2436              		.cfi_endproc
 2437              	.LFE26:
 2439              		.section	.text.uxTimerGetTimerNumber,"ax",%progbits
 2440              		.align	1
 2441              		.global	uxTimerGetTimerNumber
 2442              		.syntax unified
 2443              		.thumb
 2444              		.thumb_func
 2445              		.fpu softvfp
 2447              	uxTimerGetTimerNumber:
 2448              	.LVL193:
 2449              	.LFB27:
 2450              		.loc 1 1053 2 view -0
 2451              		.cfi_startproc
 2452              		@ args = 0, pretend = 0, frame = 0
 2453              		@ frame_needed = 0, uses_anonymous_args = 0
 2454              		@ link register save eliminated.
 2455              		.loc 1 1054 3 view .LVU625
 2456              		.loc 1 1055 2 is_stmt 0 view .LVU626
 2457 0000 806A     		ldr	r0, [r0, #40]
 2458              	.LVL194:
 2459              		.loc 1 1055 2 view .LVU627
 2460 0002 7047     		bx	lr
 2461              		.cfi_endproc
 2462              	.LFE27:
 2464              		.section	.text.vTimerSetTimerNumber,"ax",%progbits
 2465              		.align	1
 2466              		.global	vTimerSetTimerNumber
 2467              		.syntax unified
 2468              		.thumb
 2469              		.thumb_func
 2470              		.fpu softvfp
 2472              	vTimerSetTimerNumber:
 2473              	.LVL195:
 2474              	.LFB28:
 2475              		.loc 1 1063 2 is_stmt 1 view -0
 2476              		.cfi_startproc
 2477              		@ args = 0, pretend = 0, frame = 0
 2478              		@ frame_needed = 0, uses_anonymous_args = 0
 2479              		@ link register save eliminated.
 2480              		.loc 1 1064 3 view .LVU629
 2481              		.loc 1 1064 43 is_stmt 0 view .LVU630
 2482 0000 8162     		str	r1, [r0, #40]
 2483              		.loc 1 1065 2 view .LVU631
 2484 0002 7047     		bx	lr
 2485              		.cfi_endproc
 2486              	.LFE28:
 2488              		.section	.bss.pxCurrentTimerList,"aw",%nobits
 2489              		.align	2
 2490              		.set	.LANCHOR0,. + 0
 2493              	pxCurrentTimerList:
 2494 0000 00000000 		.space	4
 2495              		.section	.bss.pxOverflowTimerList,"aw",%nobits
 2496              		.align	2
 2497              		.set	.LANCHOR1,. + 0
 2500              	pxOverflowTimerList:
 2501 0000 00000000 		.space	4
ARM GAS  C:\Users\Test\AppData\Local\Temp\ccu5IEwJ.s 			page 44


 2502              		.section	.bss.ucStaticTimerQueueStorage.1,"aw",%nobits
 2503              		.align	2
 2504              		.set	.LANCHOR6,. + 0
 2507              	ucStaticTimerQueueStorage.1:
 2508 0000 00000000 		.space	160
 2508      00000000 
 2508      00000000 
 2508      00000000 
 2508      00000000 
 2509              		.section	.bss.xActiveTimerList1,"aw",%nobits
 2510              		.align	2
 2511              		.set	.LANCHOR3,. + 0
 2514              	xActiveTimerList1:
 2515 0000 00000000 		.space	20
 2515      00000000 
 2515      00000000 
 2515      00000000 
 2515      00000000 
 2516              		.section	.bss.xActiveTimerList2,"aw",%nobits
 2517              		.align	2
 2518              		.set	.LANCHOR4,. + 0
 2521              	xActiveTimerList2:
 2522 0000 00000000 		.space	20
 2522      00000000 
 2522      00000000 
 2522      00000000 
 2522      00000000 
 2523              		.section	.bss.xLastTime.2,"aw",%nobits
 2524              		.align	2
 2525              		.set	.LANCHOR8,. + 0
 2528              	xLastTime.2:
 2529 0000 00000000 		.space	4
 2530              		.section	.bss.xStaticTimerQueue.0,"aw",%nobits
 2531              		.align	2
 2532              		.set	.LANCHOR5,. + 0
 2535              	xStaticTimerQueue.0:
 2536 0000 00000000 		.space	80
 2536      00000000 
 2536      00000000 
 2536      00000000 
 2536      00000000 
 2537              		.section	.bss.xTimerQueue,"aw",%nobits
 2538              		.align	2
 2539              		.set	.LANCHOR2,. + 0
 2542              	xTimerQueue:
 2543 0000 00000000 		.space	4
 2544              		.section	.bss.xTimerTaskHandle,"aw",%nobits
 2545              		.align	2
 2546              		.set	.LANCHOR7,. + 0
 2549              	xTimerTaskHandle:
 2550 0000 00000000 		.space	4
 2551              		.text
 2552              	.Letext0:
 2553              		.file 3 "../c:\\users\\test\\desktop\\gnu mcu\\arm-none-eabi-gcc-10.2.1-1.1\\lib\\gcc\\arm-none-ea
 2554              		.file 4 "../c:\\users\\test\\desktop\\gnu mcu\\arm-none-eabi-gcc-10.2.1-1.1\\arm-none-eabi\\includ
 2555              		.file 5 "../c:\\users\\test\\desktop\\gnu mcu\\arm-none-eabi-gcc-10.2.1-1.1\\arm-none-eabi\\includ
 2556              		.file 6 "../Middlewares/Third_Party/FreeRTOS/Source/include/FreeRTOS.h"
ARM GAS  C:\Users\Test\AppData\Local\Temp\ccu5IEwJ.s 			page 45


 2557              		.file 7 "../Middlewares/Third_Party/FreeRTOS/Source/include/list.h"
 2558              		.file 8 "../Middlewares/Third_Party/FreeRTOS/Source/include/task.h"
 2559              		.file 9 "../Middlewares/Third_Party/FreeRTOS/Source/include/queue.h"
 2560              		.file 10 "../Middlewares/Third_Party/FreeRTOS/Source/include/timers.h"
 2561              		.file 11 "../Middlewares/Third_Party/FreeRTOS/Source/include/portable.h"
ARM GAS  C:\Users\Test\AppData\Local\Temp\ccu5IEwJ.s 			page 46

